
GPS_Tracker_LoRa.elf:     file format elf32-littlearm

Sections:
Idx Name          Size      VMA       LMA       File off  Algn
  0 .isr_vector   0000010c  08000000  08000000  00010000  2**0
                  CONTENTS, ALLOC, LOAD, READONLY, DATA
  1 .text         000039c0  0800010c  0800010c  0001010c  2**2
                  CONTENTS, ALLOC, LOAD, READONLY, CODE
  2 .rodata       00000320  08003acc  08003acc  00013acc  2**0
                  CONTENTS, ALLOC, LOAD, READONLY, DATA
  3 .init_array   00000004  08003dec  08003dec  00013dec  2**2
                  CONTENTS, ALLOC, LOAD, DATA
  4 .fini_array   00000004  08003df0  08003df0  00013df0  2**2
                  CONTENTS, ALLOC, LOAD, DATA
  5 .data         0000000c  20000000  08003df4  00020000  2**2
                  CONTENTS, ALLOC, LOAD, DATA
  6 .bss          0000094c  2000000c  08003e00  0002000c  2**2
                  ALLOC
  7 ._user_heap_stack 00000600  20000958  08003e00  00020958  2**0
                  ALLOC
  8 .ARM.attributes 00000029  00000000  00000000  0002000c  2**0
                  CONTENTS, READONLY
  9 .debug_info   0001f6cc  00000000  00000000  00020035  2**0
                  CONTENTS, READONLY, DEBUGGING
 10 .debug_abbrev 000045f2  00000000  00000000  0003f701  2**0
                  CONTENTS, READONLY, DEBUGGING
 11 .debug_loc    00007012  00000000  00000000  00043cf3  2**0
                  CONTENTS, READONLY, DEBUGGING
 12 .debug_aranges 00000c00  00000000  00000000  0004ad08  2**3
                  CONTENTS, READONLY, DEBUGGING
 13 .debug_ranges 00000f28  00000000  00000000  0004b908  2**3
                  CONTENTS, READONLY, DEBUGGING
 14 .debug_line   00007e71  00000000  00000000  0004c830  2**0
                  CONTENTS, READONLY, DEBUGGING
 15 .debug_str    00003fb6  00000000  00000000  000546a1  2**0
                  CONTENTS, READONLY, DEBUGGING
 16 .comment      0000007c  00000000  00000000  00058657  2**0
                  CONTENTS, READONLY
 17 .debug_frame  00002034  00000000  00000000  000586d4  2**2
                  CONTENTS, READONLY, DEBUGGING

Disassembly of section .text:

0800010c <__do_global_dtors_aux>:
 800010c:	b510      	push	{r4, lr}
 800010e:	4c05      	ldr	r4, [pc, #20]	; (8000124 <__do_global_dtors_aux+0x18>)
 8000110:	7823      	ldrb	r3, [r4, #0]
 8000112:	b933      	cbnz	r3, 8000122 <__do_global_dtors_aux+0x16>
 8000114:	4b04      	ldr	r3, [pc, #16]	; (8000128 <__do_global_dtors_aux+0x1c>)
 8000116:	b113      	cbz	r3, 800011e <__do_global_dtors_aux+0x12>
 8000118:	4804      	ldr	r0, [pc, #16]	; (800012c <__do_global_dtors_aux+0x20>)
 800011a:	f3af 8000 	nop.w
 800011e:	2301      	movs	r3, #1
 8000120:	7023      	strb	r3, [r4, #0]
 8000122:	bd10      	pop	{r4, pc}
 8000124:	2000000c 	.word	0x2000000c
 8000128:	00000000 	.word	0x00000000
 800012c:	08003ab4 	.word	0x08003ab4

08000130 <frame_dummy>:
 8000130:	b508      	push	{r3, lr}
 8000132:	4b03      	ldr	r3, [pc, #12]	; (8000140 <frame_dummy+0x10>)
 8000134:	b11b      	cbz	r3, 800013e <frame_dummy+0xe>
 8000136:	4903      	ldr	r1, [pc, #12]	; (8000144 <frame_dummy+0x14>)
 8000138:	4803      	ldr	r0, [pc, #12]	; (8000148 <frame_dummy+0x18>)
 800013a:	f3af 8000 	nop.w
 800013e:	bd08      	pop	{r3, pc}
 8000140:	00000000 	.word	0x00000000
 8000144:	20000010 	.word	0x20000010
 8000148:	08003ab4 	.word	0x08003ab4

0800014c <strlen>:
 800014c:	4603      	mov	r3, r0
 800014e:	f813 2b01 	ldrb.w	r2, [r3], #1
 8000152:	2a00      	cmp	r2, #0
 8000154:	d1fb      	bne.n	800014e <strlen+0x2>
 8000156:	1a18      	subs	r0, r3, r0
 8000158:	3801      	subs	r0, #1
 800015a:	4770      	bx	lr

0800015c <HAL_InitTick>:
  * @retval HAL status
  */
__weak HAL_StatusTypeDef HAL_InitTick(uint32_t TickPriority)
{
  /* Configure the SysTick to have interrupt in 1ms time basis*/
  if (HAL_SYSTICK_Config(SystemCoreClock / (1000U / uwTickFreq)) > 0U)
 800015c:	f44f 737a 	mov.w	r3, #1000	; 0x3e8
{
 8000160:	b570      	push	{r4, r5, r6, lr}
  if (HAL_SYSTICK_Config(SystemCoreClock / (1000U / uwTickFreq)) > 0U)
 8000162:	4e0d      	ldr	r6, [pc, #52]	; (8000198 <HAL_InitTick+0x3c>)
{
 8000164:	4605      	mov	r5, r0
  if (HAL_SYSTICK_Config(SystemCoreClock / (1000U / uwTickFreq)) > 0U)
 8000166:	7830      	ldrb	r0, [r6, #0]
 8000168:	4a0c      	ldr	r2, [pc, #48]	; (800019c <HAL_InitTick+0x40>)
 800016a:	fbb3 f3f0 	udiv	r3, r3, r0
 800016e:	6810      	ldr	r0, [r2, #0]
 8000170:	fbb0 f0f3 	udiv	r0, r0, r3
 8000174:	f000 f89c 	bl	80002b0 <HAL_SYSTICK_Config>
 8000178:	4604      	mov	r4, r0
 800017a:	b950      	cbnz	r0, 8000192 <HAL_InitTick+0x36>
  {
    return HAL_ERROR;
  }

  /* Configure the SysTick IRQ priority */
  if (TickPriority < (1UL << __NVIC_PRIO_BITS))
 800017c:	2d0f      	cmp	r5, #15
 800017e:	d808      	bhi.n	8000192 <HAL_InitTick+0x36>
  {
    HAL_NVIC_SetPriority(SysTick_IRQn, TickPriority, 0U);
 8000180:	4602      	mov	r2, r0
 8000182:	4629      	mov	r1, r5
 8000184:	f04f 30ff 	mov.w	r0, #4294967295
 8000188:	f000 f852 	bl	8000230 <HAL_NVIC_SetPriority>
    uwTickPrio = TickPriority;
 800018c:	6075      	str	r5, [r6, #4]
 800018e:	4620      	mov	r0, r4
 8000190:	bd70      	pop	{r4, r5, r6, pc}
    return HAL_ERROR;
 8000192:	2001      	movs	r0, #1
    return HAL_ERROR;
  }

  /* Return function status */
  return HAL_OK;
}
 8000194:	bd70      	pop	{r4, r5, r6, pc}
 8000196:	bf00      	nop
 8000198:	20000000 	.word	0x20000000
 800019c:	20000008 	.word	0x20000008

080001a0 <HAL_Init>:
  __HAL_FLASH_PREFETCH_BUFFER_ENABLE();
 80001a0:	4a07      	ldr	r2, [pc, #28]	; (80001c0 <HAL_Init+0x20>)
{
 80001a2:	b508      	push	{r3, lr}
  __HAL_FLASH_PREFETCH_BUFFER_ENABLE();
 80001a4:	6813      	ldr	r3, [r2, #0]
  HAL_NVIC_SetPriorityGrouping(NVIC_PRIORITYGROUP_4);
 80001a6:	2003      	movs	r0, #3
  __HAL_FLASH_PREFETCH_BUFFER_ENABLE();
 80001a8:	f043 0310 	orr.w	r3, r3, #16
 80001ac:	6013      	str	r3, [r2, #0]
  HAL_NVIC_SetPriorityGrouping(NVIC_PRIORITYGROUP_4);
 80001ae:	f000 f82d 	bl	800020c <HAL_NVIC_SetPriorityGrouping>
  HAL_InitTick(TICK_INT_PRIORITY);
 80001b2:	2000      	movs	r0, #0
 80001b4:	f7ff ffd2 	bl	800015c <HAL_InitTick>
  HAL_MspInit();
 80001b8:	f003 fa2a 	bl	8003610 <HAL_MspInit>
}
 80001bc:	2000      	movs	r0, #0
 80001be:	bd08      	pop	{r3, pc}
 80001c0:	40022000 	.word	0x40022000

080001c4 <HAL_IncTick>:
  *      implementations in user file.
  * @retval None
  */
__weak void HAL_IncTick(void)
{
  uwTick += uwTickFreq;
 80001c4:	4a03      	ldr	r2, [pc, #12]	; (80001d4 <HAL_IncTick+0x10>)
 80001c6:	4b04      	ldr	r3, [pc, #16]	; (80001d8 <HAL_IncTick+0x14>)
 80001c8:	6811      	ldr	r1, [r2, #0]
 80001ca:	781b      	ldrb	r3, [r3, #0]
 80001cc:	440b      	add	r3, r1
 80001ce:	6013      	str	r3, [r2, #0]
 80001d0:	4770      	bx	lr
 80001d2:	bf00      	nop
 80001d4:	200002bc 	.word	0x200002bc
 80001d8:	20000000 	.word	0x20000000

080001dc <HAL_GetTick>:
  *       implementations in user file.
  * @retval tick value
  */
__weak uint32_t HAL_GetTick(void)
{
  return uwTick;
 80001dc:	4b01      	ldr	r3, [pc, #4]	; (80001e4 <HAL_GetTick+0x8>)
 80001de:	6818      	ldr	r0, [r3, #0]
}
 80001e0:	4770      	bx	lr
 80001e2:	bf00      	nop
 80001e4:	200002bc 	.word	0x200002bc

080001e8 <HAL_Delay>:
  *       implementations in user file.
  * @param Delay specifies the delay time length, in milliseconds.
  * @retval None
  */
__weak void HAL_Delay(uint32_t Delay)
{
 80001e8:	b538      	push	{r3, r4, r5, lr}
 80001ea:	4604      	mov	r4, r0
  uint32_t tickstart = HAL_GetTick();
 80001ec:	f7ff fff6 	bl	80001dc <HAL_GetTick>
 80001f0:	4605      	mov	r5, r0
  uint32_t wait = Delay;

  /* Add a freq to guarantee minimum wait */
  if (wait < HAL_MAX_DELAY)
 80001f2:	1c63      	adds	r3, r4, #1
  {
    wait += (uint32_t)(uwTickFreq);
 80001f4:	bf1e      	ittt	ne
 80001f6:	4b04      	ldrne	r3, [pc, #16]	; (8000208 <HAL_Delay+0x20>)
 80001f8:	781b      	ldrbne	r3, [r3, #0]
 80001fa:	18e4      	addne	r4, r4, r3
  }

  while ((HAL_GetTick() - tickstart) < wait)
 80001fc:	f7ff ffee 	bl	80001dc <HAL_GetTick>
 8000200:	1b40      	subs	r0, r0, r5
 8000202:	4284      	cmp	r4, r0
 8000204:	d8fa      	bhi.n	80001fc <HAL_Delay+0x14>
  {
  }
}
 8000206:	bd38      	pop	{r3, r4, r5, pc}
 8000208:	20000000 	.word	0x20000000

0800020c <HAL_NVIC_SetPriorityGrouping>:
__STATIC_INLINE void NVIC_SetPriorityGrouping(uint32_t PriorityGroup)
{
  uint32_t reg_value;
  uint32_t PriorityGroupTmp = (PriorityGroup & (uint32_t)0x07UL);             /* only values 0..7 are used          */

  reg_value  =  SCB->AIRCR;                                                   /* read old register configuration    */
 800020c:	4a07      	ldr	r2, [pc, #28]	; (800022c <HAL_NVIC_SetPriorityGrouping+0x20>)
  reg_value &= ~((uint32_t)(SCB_AIRCR_VECTKEY_Msk | SCB_AIRCR_PRIGROUP_Msk)); /* clear bits to change               */
  reg_value  =  (reg_value                                   |
                ((uint32_t)0x5FAUL << SCB_AIRCR_VECTKEY_Pos) |
                (PriorityGroupTmp << 8U)                      );              /* Insert write key and priorty group */
 800020e:	0200      	lsls	r0, r0, #8
  reg_value  =  SCB->AIRCR;                                                   /* read old register configuration    */
 8000210:	68d3      	ldr	r3, [r2, #12]
                (PriorityGroupTmp << 8U)                      );              /* Insert write key and priorty group */
 8000212:	f400 60e0 	and.w	r0, r0, #1792	; 0x700
  reg_value &= ~((uint32_t)(SCB_AIRCR_VECTKEY_Msk | SCB_AIRCR_PRIGROUP_Msk)); /* clear bits to change               */
 8000216:	f423 63e0 	bic.w	r3, r3, #1792	; 0x700
 800021a:	041b      	lsls	r3, r3, #16
 800021c:	0c1b      	lsrs	r3, r3, #16
 800021e:	f043 63bf 	orr.w	r3, r3, #100139008	; 0x5f80000
 8000222:	f443 3300 	orr.w	r3, r3, #131072	; 0x20000
  reg_value  =  (reg_value                                   |
 8000226:	4303      	orrs	r3, r0
  SCB->AIRCR =  reg_value;
 8000228:	60d3      	str	r3, [r2, #12]
 800022a:	4770      	bx	lr
 800022c:	e000ed00 	.word	0xe000ed00

08000230 <HAL_NVIC_SetPriority>:
  \details Reads the priority grouping field from the NVIC Interrupt Controller.
  \return                Priority grouping field (SCB->AIRCR [10:8] PRIGROUP field).
 */
__STATIC_INLINE uint32_t NVIC_GetPriorityGrouping(void)
{
  return ((uint32_t)((SCB->AIRCR & SCB_AIRCR_PRIGROUP_Msk) >> SCB_AIRCR_PRIGROUP_Pos));
 8000230:	4b17      	ldr	r3, [pc, #92]	; (8000290 <HAL_NVIC_SetPriority+0x60>)
  *         This parameter can be a value between 0 and 15
  *         A lower priority value indicates a higher priority.          
  * @retval None
  */
void HAL_NVIC_SetPriority(IRQn_Type IRQn, uint32_t PreemptPriority, uint32_t SubPriority)
{ 
 8000232:	b530      	push	{r4, r5, lr}
 8000234:	68dc      	ldr	r4, [r3, #12]
 8000236:	f3c4 2402 	ubfx	r4, r4, #8, #3
{
  uint32_t PriorityGroupTmp = (PriorityGroup & (uint32_t)0x07UL);   /* only values 0..7 are used          */
  uint32_t PreemptPriorityBits;
  uint32_t SubPriorityBits;

  PreemptPriorityBits = ((7UL - PriorityGroupTmp) > (uint32_t)(__NVIC_PRIO_BITS)) ? (uint32_t)(__NVIC_PRIO_BITS) : (uint32_t)(7UL - PriorityGroupTmp);
 800023a:	f1c4 0307 	rsb	r3, r4, #7
  SubPriorityBits     = ((PriorityGroupTmp + (uint32_t)(__NVIC_PRIO_BITS)) < (uint32_t)7UL) ? (uint32_t)0UL : (uint32_t)((PriorityGroupTmp - 7UL) + (uint32_t)(__NVIC_PRIO_BITS));
 800023e:	1d25      	adds	r5, r4, #4
  PreemptPriorityBits = ((7UL - PriorityGroupTmp) > (uint32_t)(__NVIC_PRIO_BITS)) ? (uint32_t)(__NVIC_PRIO_BITS) : (uint32_t)(7UL - PriorityGroupTmp);
 8000240:	2b04      	cmp	r3, #4
 8000242:	bf28      	it	cs
 8000244:	2304      	movcs	r3, #4
  SubPriorityBits     = ((PriorityGroupTmp + (uint32_t)(__NVIC_PRIO_BITS)) < (uint32_t)7UL) ? (uint32_t)0UL : (uint32_t)((PriorityGroupTmp - 7UL) + (uint32_t)(__NVIC_PRIO_BITS));
 8000246:	2d06      	cmp	r5, #6

  return (
           ((PreemptPriority & (uint32_t)((1UL << (PreemptPriorityBits)) - 1UL)) << SubPriorityBits) |
 8000248:	f04f 0501 	mov.w	r5, #1
  SubPriorityBits     = ((PriorityGroupTmp + (uint32_t)(__NVIC_PRIO_BITS)) < (uint32_t)7UL) ? (uint32_t)0UL : (uint32_t)((PriorityGroupTmp - 7UL) + (uint32_t)(__NVIC_PRIO_BITS));
 800024c:	bf98      	it	ls
 800024e:	2400      	movls	r4, #0
           ((PreemptPriority & (uint32_t)((1UL << (PreemptPriorityBits)) - 1UL)) << SubPriorityBits) |
 8000250:	fa05 f303 	lsl.w	r3, r5, r3
 8000254:	f103 33ff 	add.w	r3, r3, #4294967295
  SubPriorityBits     = ((PriorityGroupTmp + (uint32_t)(__NVIC_PRIO_BITS)) < (uint32_t)7UL) ? (uint32_t)0UL : (uint32_t)((PriorityGroupTmp - 7UL) + (uint32_t)(__NVIC_PRIO_BITS));
 8000258:	bf88      	it	hi
 800025a:	3c03      	subhi	r4, #3
           ((PreemptPriority & (uint32_t)((1UL << (PreemptPriorityBits)) - 1UL)) << SubPriorityBits) |
 800025c:	4019      	ands	r1, r3
 800025e:	40a1      	lsls	r1, r4
           ((SubPriority     & (uint32_t)((1UL << (SubPriorityBits    )) - 1UL)))
 8000260:	fa05 f404 	lsl.w	r4, r5, r4
 8000264:	3c01      	subs	r4, #1
 8000266:	4022      	ands	r2, r4
  if ((int32_t)(IRQn) < 0)
 8000268:	2800      	cmp	r0, #0
           ((PreemptPriority & (uint32_t)((1UL << (PreemptPriorityBits)) - 1UL)) << SubPriorityBits) |
 800026a:	ea42 0201 	orr.w	r2, r2, r1
 800026e:	ea4f 1202 	mov.w	r2, r2, lsl #4
    NVIC->IP[((uint32_t)(int32_t)IRQn)]               = (uint8_t)((priority << (8U - __NVIC_PRIO_BITS)) & (uint32_t)0xFFUL);
 8000272:	bfaf      	iteee	ge
 8000274:	f100 4060 	addge.w	r0, r0, #3758096384	; 0xe0000000
    SCB->SHP[(((uint32_t)(int32_t)IRQn) & 0xFUL)-4UL] = (uint8_t)((priority << (8U - __NVIC_PRIO_BITS)) & (uint32_t)0xFFUL);
 8000278:	4b06      	ldrlt	r3, [pc, #24]	; (8000294 <HAL_NVIC_SetPriority+0x64>)
 800027a:	f000 000f 	andlt.w	r0, r0, #15
 800027e:	b2d2      	uxtblt	r2, r2
    NVIC->IP[((uint32_t)(int32_t)IRQn)]               = (uint8_t)((priority << (8U - __NVIC_PRIO_BITS)) & (uint32_t)0xFFUL);
 8000280:	bfa5      	ittet	ge
 8000282:	b2d2      	uxtbge	r2, r2
 8000284:	f500 4061 	addge.w	r0, r0, #57600	; 0xe100
    SCB->SHP[(((uint32_t)(int32_t)IRQn) & 0xFUL)-4UL] = (uint8_t)((priority << (8U - __NVIC_PRIO_BITS)) & (uint32_t)0xFFUL);
 8000288:	541a      	strblt	r2, [r3, r0]
    NVIC->IP[((uint32_t)(int32_t)IRQn)]               = (uint8_t)((priority << (8U - __NVIC_PRIO_BITS)) & (uint32_t)0xFFUL);
 800028a:	f880 2300 	strbge.w	r2, [r0, #768]	; 0x300
 800028e:	bd30      	pop	{r4, r5, pc}
 8000290:	e000ed00 	.word	0xe000ed00
 8000294:	e000ed14 	.word	0xe000ed14

08000298 <HAL_NVIC_EnableIRQ>:
  NVIC->ISER[(((uint32_t)(int32_t)IRQn) >> 5UL)] = (uint32_t)(1UL << (((uint32_t)(int32_t)IRQn) & 0x1FUL));
 8000298:	2301      	movs	r3, #1
 800029a:	0942      	lsrs	r2, r0, #5
 800029c:	f000 001f 	and.w	r0, r0, #31
 80002a0:	fa03 f000 	lsl.w	r0, r3, r0
 80002a4:	4b01      	ldr	r3, [pc, #4]	; (80002ac <HAL_NVIC_EnableIRQ+0x14>)
 80002a6:	f843 0022 	str.w	r0, [r3, r2, lsl #2]
 80002aa:	4770      	bx	lr
 80002ac:	e000e100 	.word	0xe000e100

080002b0 <HAL_SYSTICK_Config>:
           function <b>SysTick_Config</b> is not included. In this case, the file <b><i>device</i>.h</b>
           must contain a vendor-specific implementation of this function.
 */
__STATIC_INLINE uint32_t SysTick_Config(uint32_t ticks)
{
  if ((ticks - 1UL) > SysTick_LOAD_RELOAD_Msk)
 80002b0:	3801      	subs	r0, #1
 80002b2:	f1b0 7f80 	cmp.w	r0, #16777216	; 0x1000000
 80002b6:	d20a      	bcs.n	80002ce <HAL_SYSTICK_Config+0x1e>
    SCB->SHP[(((uint32_t)(int32_t)IRQn) & 0xFUL)-4UL] = (uint8_t)((priority << (8U - __NVIC_PRIO_BITS)) & (uint32_t)0xFFUL);
 80002b8:	21f0      	movs	r1, #240	; 0xf0
  {
    return (1UL);                                                   /* Reload value impossible */
  }

  SysTick->LOAD  = (uint32_t)(ticks - 1UL);                         /* set reload register */
 80002ba:	4b06      	ldr	r3, [pc, #24]	; (80002d4 <HAL_SYSTICK_Config+0x24>)
    SCB->SHP[(((uint32_t)(int32_t)IRQn) & 0xFUL)-4UL] = (uint8_t)((priority << (8U - __NVIC_PRIO_BITS)) & (uint32_t)0xFFUL);
 80002bc:	4a06      	ldr	r2, [pc, #24]	; (80002d8 <HAL_SYSTICK_Config+0x28>)
  SysTick->LOAD  = (uint32_t)(ticks - 1UL);                         /* set reload register */
 80002be:	6058      	str	r0, [r3, #4]
    SCB->SHP[(((uint32_t)(int32_t)IRQn) & 0xFUL)-4UL] = (uint8_t)((priority << (8U - __NVIC_PRIO_BITS)) & (uint32_t)0xFFUL);
 80002c0:	f882 1023 	strb.w	r1, [r2, #35]	; 0x23
  NVIC_SetPriority (SysTick_IRQn, (1UL << __NVIC_PRIO_BITS) - 1UL); /* set Priority for Systick Interrupt */
  SysTick->VAL   = 0UL;                                             /* Load the SysTick Counter Value */
 80002c4:	2000      	movs	r0, #0
  SysTick->CTRL  = SysTick_CTRL_CLKSOURCE_Msk |
 80002c6:	2207      	movs	r2, #7
  SysTick->VAL   = 0UL;                                             /* Load the SysTick Counter Value */
 80002c8:	6098      	str	r0, [r3, #8]
  SysTick->CTRL  = SysTick_CTRL_CLKSOURCE_Msk |
 80002ca:	601a      	str	r2, [r3, #0]
 80002cc:	4770      	bx	lr
    return (1UL);                                                   /* Reload value impossible */
 80002ce:	2001      	movs	r0, #1
  *                  - 1  Function failed.
  */
uint32_t HAL_SYSTICK_Config(uint32_t TicksNumb)
{
   return SysTick_Config(TicksNumb);
}
 80002d0:	4770      	bx	lr
 80002d2:	bf00      	nop
 80002d4:	e000e010 	.word	0xe000e010
 80002d8:	e000ed00 	.word	0xe000ed00

080002dc <HAL_SYSTICK_CLKSourceConfig>:
  *             @arg SYSTICK_CLKSOURCE_HCLK_DIV8: AHB clock divided by 8 selected as SysTick clock source.
  *             @arg SYSTICK_CLKSOURCE_HCLK: AHB clock selected as SysTick clock source.
  * @retval None
  */
void HAL_SYSTICK_CLKSourceConfig(uint32_t CLKSource)
{
 80002dc:	4b04      	ldr	r3, [pc, #16]	; (80002f0 <HAL_SYSTICK_CLKSourceConfig+0x14>)
  /* Check the parameters */
  assert_param(IS_SYSTICK_CLK_SOURCE(CLKSource));
  if (CLKSource == SYSTICK_CLKSOURCE_HCLK)
 80002de:	2804      	cmp	r0, #4
  {
    SysTick->CTRL |= SYSTICK_CLKSOURCE_HCLK;
 80002e0:	681a      	ldr	r2, [r3, #0]
 80002e2:	bf0c      	ite	eq
 80002e4:	f042 0204 	orreq.w	r2, r2, #4
  }
  else
  {
    SysTick->CTRL &= ~SYSTICK_CLKSOURCE_HCLK;
 80002e8:	f022 0204 	bicne.w	r2, r2, #4
 80002ec:	601a      	str	r2, [r3, #0]
 80002ee:	4770      	bx	lr
 80002f0:	e000e010 	.word	0xe000e010

080002f4 <HAL_SYSTICK_IRQHandler>:
/**
  * @brief  This function handles SYSTICK interrupt request.
  * @retval None
  */
void HAL_SYSTICK_IRQHandler(void)
{
 80002f4:	b508      	push	{r3, lr}
  HAL_SYSTICK_Callback();
 80002f6:	f002 f9af 	bl	8002658 <HAL_SYSTICK_Callback>
 80002fa:	bd08      	pop	{r3, pc}

080002fc <HAL_DMA_Init>:
  * @param  hdma: Pointer to a DMA_HandleTypeDef structure that contains
  *               the configuration information for the specified DMA Channel.
  * @retval HAL status
  */
HAL_StatusTypeDef HAL_DMA_Init(DMA_HandleTypeDef *hdma)
{
 80002fc:	b510      	push	{r4, lr}
  uint32_t tmp = 0U;

  /* Check the DMA handle allocation */
  if(hdma == NULL)
 80002fe:	b350      	cbz	r0, 8000356 <HAL_DMA_Init+0x5a>
    hdma->ChannelIndex = (((uint32_t)hdma->Instance - (uint32_t)DMA2_Channel1) / ((uint32_t)DMA2_Channel2 - (uint32_t)DMA2_Channel1)) << 2;
    hdma->DmaBaseAddress = DMA2;
  }
#else
  /* DMA1 */
  hdma->ChannelIndex = (((uint32_t)hdma->Instance - (uint32_t)DMA1_Channel1) / ((uint32_t)DMA1_Channel2 - (uint32_t)DMA1_Channel1)) << 2;
 8000300:	2214      	movs	r2, #20
 8000302:	6801      	ldr	r1, [r0, #0]
 8000304:	4b15      	ldr	r3, [pc, #84]	; (800035c <HAL_DMA_Init+0x60>)
  tmp &= ((uint32_t)~(DMA_CCR_PL    | DMA_CCR_MSIZE  | DMA_CCR_PSIZE  | \
                      DMA_CCR_MINC  | DMA_CCR_PINC   | DMA_CCR_CIRC   | \
                      DMA_CCR_DIR));

  /* Prepare the DMA Channel configuration */
  tmp |=  hdma->Init.Direction        |
 8000306:	6884      	ldr	r4, [r0, #8]
  hdma->ChannelIndex = (((uint32_t)hdma->Instance - (uint32_t)DMA1_Channel1) / ((uint32_t)DMA1_Channel2 - (uint32_t)DMA1_Channel1)) << 2;
 8000308:	440b      	add	r3, r1
 800030a:	fbb3 f3f2 	udiv	r3, r3, r2
 800030e:	009b      	lsls	r3, r3, #2
 8000310:	6403      	str	r3, [r0, #64]	; 0x40
  hdma->DmaBaseAddress = DMA1;
 8000312:	4b13      	ldr	r3, [pc, #76]	; (8000360 <HAL_DMA_Init+0x64>)
  tmp = hdma->Instance->CCR;
 8000314:	680a      	ldr	r2, [r1, #0]
  hdma->DmaBaseAddress = DMA1;
 8000316:	63c3      	str	r3, [r0, #60]	; 0x3c
  tmp |=  hdma->Init.Direction        |
 8000318:	6843      	ldr	r3, [r0, #4]
  tmp &= ((uint32_t)~(DMA_CCR_PL    | DMA_CCR_MSIZE  | DMA_CCR_PSIZE  | \
 800031a:	f422 527f 	bic.w	r2, r2, #16320	; 0x3fc0
  tmp |=  hdma->Init.Direction        |
 800031e:	4323      	orrs	r3, r4
          hdma->Init.PeriphInc           | hdma->Init.MemInc           |
 8000320:	68c4      	ldr	r4, [r0, #12]
  tmp &= ((uint32_t)~(DMA_CCR_PL    | DMA_CCR_MSIZE  | DMA_CCR_PSIZE  | \
 8000322:	f022 0230 	bic.w	r2, r2, #48	; 0x30
          hdma->Init.PeriphInc           | hdma->Init.MemInc           |
 8000326:	4323      	orrs	r3, r4
 8000328:	6904      	ldr	r4, [r0, #16]
 800032a:	4323      	orrs	r3, r4
          hdma->Init.PeriphDataAlignment | hdma->Init.MemDataAlignment |
 800032c:	6944      	ldr	r4, [r0, #20]
 800032e:	4323      	orrs	r3, r4
 8000330:	6984      	ldr	r4, [r0, #24]
 8000332:	4323      	orrs	r3, r4
          hdma->Init.Mode                | hdma->Init.Priority;
 8000334:	69c4      	ldr	r4, [r0, #28]
 8000336:	4323      	orrs	r3, r4
  tmp |=  hdma->Init.Direction        |
 8000338:	4313      	orrs	r3, r2

  /* Write to DMA Channel CR register */
  hdma->Instance->CCR = tmp;
 800033a:	600b      	str	r3, [r1, #0]

  /* Initialise the error code */
  hdma->ErrorCode = HAL_DMA_ERROR_NONE;

  /* Initialize the DMA state*/
  hdma->State = HAL_DMA_STATE_READY;
 800033c:	2201      	movs	r2, #1
  hdma->XferCpltCallback = NULL;
 800033e:	2300      	movs	r3, #0
  hdma->State = HAL_DMA_STATE_READY;
 8000340:	f880 2021 	strb.w	r2, [r0, #33]	; 0x21
  hdma->XferCpltCallback = NULL;
 8000344:	6283      	str	r3, [r0, #40]	; 0x28
  hdma->XferHalfCpltCallback = NULL;
 8000346:	62c3      	str	r3, [r0, #44]	; 0x2c
  hdma->XferErrorCallback = NULL;
 8000348:	6303      	str	r3, [r0, #48]	; 0x30
  hdma->XferAbortCallback = NULL;
 800034a:	6343      	str	r3, [r0, #52]	; 0x34
  hdma->ErrorCode = HAL_DMA_ERROR_NONE;
 800034c:	6383      	str	r3, [r0, #56]	; 0x38
  /* Allocate lock resource and initialize it */
  hdma->Lock = HAL_UNLOCKED;
 800034e:	f880 3020 	strb.w	r3, [r0, #32]
  
  return HAL_OK;
 8000352:	4618      	mov	r0, r3
 8000354:	bd10      	pop	{r4, pc}
    return HAL_ERROR;
 8000356:	2001      	movs	r0, #1
}
 8000358:	bd10      	pop	{r4, pc}
 800035a:	bf00      	nop
 800035c:	bffdfff8 	.word	0xbffdfff8
 8000360:	40020000 	.word	0x40020000

08000364 <HAL_DMA_Start_IT>:
  * @param  DstAddress: The destination memory Buffer address
  * @param  DataLength: The length of data to be transferred from source to destination
  * @retval HAL status
  */
HAL_StatusTypeDef HAL_DMA_Start_IT(DMA_HandleTypeDef *hdma, uint32_t SrcAddress, uint32_t DstAddress, uint32_t DataLength)
{
 8000364:	b5f0      	push	{r4, r5, r6, r7, lr}

  /* Check the parameters */
  assert_param(IS_DMA_BUFFER_SIZE(DataLength));

  /* Process locked */
  __HAL_LOCK(hdma);
 8000366:	f890 4020 	ldrb.w	r4, [r0, #32]
 800036a:	2c01      	cmp	r4, #1
 800036c:	d035      	beq.n	80003da <HAL_DMA_Start_IT+0x76>
 800036e:	2401      	movs	r4, #1
  
  if(HAL_DMA_STATE_READY == hdma->State)
 8000370:	f890 5021 	ldrb.w	r5, [r0, #33]	; 0x21
  __HAL_LOCK(hdma);
 8000374:	f880 4020 	strb.w	r4, [r0, #32]
  if(HAL_DMA_STATE_READY == hdma->State)
 8000378:	42a5      	cmp	r5, r4
 800037a:	f04f 0600 	mov.w	r6, #0
 800037e:	f04f 0402 	mov.w	r4, #2
 8000382:	d128      	bne.n	80003d6 <HAL_DMA_Start_IT+0x72>
  {
    /* Change DMA peripheral state */
    hdma->State = HAL_DMA_STATE_BUSY;
 8000384:	f880 4021 	strb.w	r4, [r0, #33]	; 0x21
    hdma->ErrorCode = HAL_DMA_ERROR_NONE;
    
    /* Disable the peripheral */
    __HAL_DMA_DISABLE(hdma);
 8000388:	6804      	ldr	r4, [r0, #0]
    hdma->ErrorCode = HAL_DMA_ERROR_NONE;
 800038a:	6386      	str	r6, [r0, #56]	; 0x38
    __HAL_DMA_DISABLE(hdma);
 800038c:	6826      	ldr	r6, [r4, #0]
  * @retval HAL status
  */
static void DMA_SetConfig(DMA_HandleTypeDef *hdma, uint32_t SrcAddress, uint32_t DstAddress, uint32_t DataLength)
{
  /* Clear all flags */
  hdma->DmaBaseAddress->IFCR = (DMA_ISR_GIF1 << hdma->ChannelIndex);
 800038e:	6c07      	ldr	r7, [r0, #64]	; 0x40
    __HAL_DMA_DISABLE(hdma);
 8000390:	f026 0601 	bic.w	r6, r6, #1
 8000394:	6026      	str	r6, [r4, #0]
  hdma->DmaBaseAddress->IFCR = (DMA_ISR_GIF1 << hdma->ChannelIndex);
 8000396:	6bc6      	ldr	r6, [r0, #60]	; 0x3c
 8000398:	40bd      	lsls	r5, r7
 800039a:	6075      	str	r5, [r6, #4]

  /* Configure DMA Channel data length */
  hdma->Instance->CNDTR = DataLength;
 800039c:	6063      	str	r3, [r4, #4]

  /* Memory to Peripheral */
  if((hdma->Init.Direction) == DMA_MEMORY_TO_PERIPH)
 800039e:	6843      	ldr	r3, [r0, #4]
 80003a0:	6805      	ldr	r5, [r0, #0]
 80003a2:	2b10      	cmp	r3, #16
    if(NULL != hdma->XferHalfCpltCallback)
 80003a4:	6ac3      	ldr	r3, [r0, #44]	; 0x2c
  {
    /* Configure DMA Channel destination address */
    hdma->Instance->CPAR = DstAddress;
 80003a6:	bf0b      	itete	eq
 80003a8:	60a2      	streq	r2, [r4, #8]
  }
  /* Peripheral to Memory */
  else
  {
    /* Configure DMA Channel source address */
    hdma->Instance->CPAR = SrcAddress;
 80003aa:	60a1      	strne	r1, [r4, #8]
    hdma->Instance->CMAR = SrcAddress;
 80003ac:	60e1      	streq	r1, [r4, #12]

    /* Configure DMA Channel destination address */
    hdma->Instance->CMAR = DstAddress;
 80003ae:	60e2      	strne	r2, [r4, #12]
    if(NULL != hdma->XferHalfCpltCallback)
 80003b0:	b14b      	cbz	r3, 80003c6 <HAL_DMA_Start_IT+0x62>
      __HAL_DMA_ENABLE_IT(hdma, (DMA_IT_TC | DMA_IT_HT | DMA_IT_TE));
 80003b2:	6823      	ldr	r3, [r4, #0]
 80003b4:	f043 030e 	orr.w	r3, r3, #14
      __HAL_DMA_ENABLE_IT(hdma, (DMA_IT_TC | DMA_IT_TE));
 80003b8:	6023      	str	r3, [r4, #0]
    __HAL_DMA_ENABLE(hdma);
 80003ba:	682b      	ldr	r3, [r5, #0]
  HAL_StatusTypeDef status = HAL_OK;
 80003bc:	2000      	movs	r0, #0
    __HAL_DMA_ENABLE(hdma);
 80003be:	f043 0301 	orr.w	r3, r3, #1
 80003c2:	602b      	str	r3, [r5, #0]
 80003c4:	bdf0      	pop	{r4, r5, r6, r7, pc}
      __HAL_DMA_DISABLE_IT(hdma, DMA_IT_HT);
 80003c6:	6823      	ldr	r3, [r4, #0]
 80003c8:	f023 0304 	bic.w	r3, r3, #4
 80003cc:	6023      	str	r3, [r4, #0]
      __HAL_DMA_ENABLE_IT(hdma, (DMA_IT_TC | DMA_IT_TE));
 80003ce:	6823      	ldr	r3, [r4, #0]
 80003d0:	f043 030a 	orr.w	r3, r3, #10
 80003d4:	e7f0      	b.n	80003b8 <HAL_DMA_Start_IT+0x54>
    __HAL_UNLOCK(hdma); 
 80003d6:	f880 6020 	strb.w	r6, [r0, #32]
  __HAL_LOCK(hdma);
 80003da:	2002      	movs	r0, #2
}
 80003dc:	bdf0      	pop	{r4, r5, r6, r7, pc}
	...

080003e0 <HAL_DMA_Abort_IT>:
  if(HAL_DMA_STATE_BUSY != hdma->State)
 80003e0:	f890 3021 	ldrb.w	r3, [r0, #33]	; 0x21
{  
 80003e4:	b510      	push	{r4, lr}
  if(HAL_DMA_STATE_BUSY != hdma->State)
 80003e6:	2b02      	cmp	r3, #2
 80003e8:	d003      	beq.n	80003f2 <HAL_DMA_Abort_IT+0x12>
    hdma->ErrorCode = HAL_DMA_ERROR_NO_XFER;
 80003ea:	2304      	movs	r3, #4
 80003ec:	6383      	str	r3, [r0, #56]	; 0x38
    status = HAL_ERROR;
 80003ee:	2001      	movs	r0, #1
 80003f0:	bd10      	pop	{r4, pc}
    __HAL_DMA_DISABLE_IT(hdma, (DMA_IT_TC | DMA_IT_HT | DMA_IT_TE));
 80003f2:	6803      	ldr	r3, [r0, #0]
 80003f4:	681a      	ldr	r2, [r3, #0]
 80003f6:	f022 020e 	bic.w	r2, r2, #14
 80003fa:	601a      	str	r2, [r3, #0]
    __HAL_DMA_DISABLE(hdma);
 80003fc:	681a      	ldr	r2, [r3, #0]
 80003fe:	f022 0201 	bic.w	r2, r2, #1
 8000402:	601a      	str	r2, [r3, #0]
    __HAL_DMA_CLEAR_FLAG(hdma, __HAL_DMA_GET_GI_FLAG_INDEX(hdma));
 8000404:	4a18      	ldr	r2, [pc, #96]	; (8000468 <HAL_DMA_Abort_IT+0x88>)
 8000406:	4293      	cmp	r3, r2
 8000408:	d01f      	beq.n	800044a <HAL_DMA_Abort_IT+0x6a>
 800040a:	3214      	adds	r2, #20
 800040c:	4293      	cmp	r3, r2
 800040e:	d01e      	beq.n	800044e <HAL_DMA_Abort_IT+0x6e>
 8000410:	3214      	adds	r2, #20
 8000412:	4293      	cmp	r3, r2
 8000414:	d01d      	beq.n	8000452 <HAL_DMA_Abort_IT+0x72>
 8000416:	3214      	adds	r2, #20
 8000418:	4293      	cmp	r3, r2
 800041a:	d01d      	beq.n	8000458 <HAL_DMA_Abort_IT+0x78>
 800041c:	3214      	adds	r2, #20
 800041e:	4293      	cmp	r3, r2
 8000420:	d01d      	beq.n	800045e <HAL_DMA_Abort_IT+0x7e>
 8000422:	3214      	adds	r2, #20
 8000424:	4293      	cmp	r3, r2
 8000426:	bf0c      	ite	eq
 8000428:	f44f 1380 	moveq.w	r3, #1048576	; 0x100000
 800042c:	f04f 7380 	movne.w	r3, #16777216	; 0x1000000
 8000430:	4a0e      	ldr	r2, [pc, #56]	; (800046c <HAL_DMA_Abort_IT+0x8c>)
    __HAL_UNLOCK(hdma);
 8000432:	2400      	movs	r4, #0
    __HAL_DMA_CLEAR_FLAG(hdma, __HAL_DMA_GET_GI_FLAG_INDEX(hdma));
 8000434:	6053      	str	r3, [r2, #4]
    hdma->State = HAL_DMA_STATE_READY;
 8000436:	2301      	movs	r3, #1
 8000438:	f880 3021 	strb.w	r3, [r0, #33]	; 0x21
    if(hdma->XferAbortCallback != NULL)
 800043c:	6b43      	ldr	r3, [r0, #52]	; 0x34
    __HAL_UNLOCK(hdma);
 800043e:	f880 4020 	strb.w	r4, [r0, #32]
    if(hdma->XferAbortCallback != NULL)
 8000442:	b17b      	cbz	r3, 8000464 <HAL_DMA_Abort_IT+0x84>
      hdma->XferAbortCallback(hdma);
 8000444:	4798      	blx	r3
  HAL_StatusTypeDef status = HAL_OK;
 8000446:	4620      	mov	r0, r4
 8000448:	bd10      	pop	{r4, pc}
    __HAL_DMA_CLEAR_FLAG(hdma, __HAL_DMA_GET_GI_FLAG_INDEX(hdma));
 800044a:	2301      	movs	r3, #1
 800044c:	e7f0      	b.n	8000430 <HAL_DMA_Abort_IT+0x50>
 800044e:	2310      	movs	r3, #16
 8000450:	e7ee      	b.n	8000430 <HAL_DMA_Abort_IT+0x50>
 8000452:	f44f 7380 	mov.w	r3, #256	; 0x100
 8000456:	e7eb      	b.n	8000430 <HAL_DMA_Abort_IT+0x50>
 8000458:	f44f 5380 	mov.w	r3, #4096	; 0x1000
 800045c:	e7e8      	b.n	8000430 <HAL_DMA_Abort_IT+0x50>
 800045e:	f44f 3380 	mov.w	r3, #65536	; 0x10000
 8000462:	e7e5      	b.n	8000430 <HAL_DMA_Abort_IT+0x50>
  HAL_StatusTypeDef status = HAL_OK;
 8000464:	4618      	mov	r0, r3
}
 8000466:	bd10      	pop	{r4, pc}
 8000468:	40020008 	.word	0x40020008
 800046c:	40020000 	.word	0x40020000

08000470 <HAL_DMA_IRQHandler>:
{
 8000470:	b470      	push	{r4, r5, r6}
  if (((flag_it & (DMA_FLAG_HT1 << hdma->ChannelIndex)) != RESET) && ((source_it & DMA_IT_HT) != RESET))
 8000472:	2504      	movs	r5, #4
  uint32_t flag_it = hdma->DmaBaseAddress->ISR;
 8000474:	6bc6      	ldr	r6, [r0, #60]	; 0x3c
  if (((flag_it & (DMA_FLAG_HT1 << hdma->ChannelIndex)) != RESET) && ((source_it & DMA_IT_HT) != RESET))
 8000476:	6c02      	ldr	r2, [r0, #64]	; 0x40
  uint32_t flag_it = hdma->DmaBaseAddress->ISR;
 8000478:	6834      	ldr	r4, [r6, #0]
  uint32_t source_it = hdma->Instance->CCR;
 800047a:	6803      	ldr	r3, [r0, #0]
  if (((flag_it & (DMA_FLAG_HT1 << hdma->ChannelIndex)) != RESET) && ((source_it & DMA_IT_HT) != RESET))
 800047c:	4095      	lsls	r5, r2
 800047e:	4225      	tst	r5, r4
  uint32_t source_it = hdma->Instance->CCR;
 8000480:	6819      	ldr	r1, [r3, #0]
  if (((flag_it & (DMA_FLAG_HT1 << hdma->ChannelIndex)) != RESET) && ((source_it & DMA_IT_HT) != RESET))
 8000482:	d032      	beq.n	80004ea <HAL_DMA_IRQHandler+0x7a>
 8000484:	074d      	lsls	r5, r1, #29
 8000486:	d530      	bpl.n	80004ea <HAL_DMA_IRQHandler+0x7a>
    if((hdma->Instance->CCR & DMA_CCR_CIRC) == 0U)
 8000488:	681a      	ldr	r2, [r3, #0]
 800048a:	0696      	lsls	r6, r2, #26
      __HAL_DMA_DISABLE_IT(hdma, DMA_IT_HT);
 800048c:	bf5e      	ittt	pl
 800048e:	681a      	ldrpl	r2, [r3, #0]
 8000490:	f022 0204 	bicpl.w	r2, r2, #4
 8000494:	601a      	strpl	r2, [r3, #0]
    __HAL_DMA_CLEAR_FLAG(hdma, __HAL_DMA_GET_HT_FLAG_INDEX(hdma));
 8000496:	4a3e      	ldr	r2, [pc, #248]	; (8000590 <HAL_DMA_IRQHandler+0x120>)
 8000498:	4293      	cmp	r3, r2
 800049a:	d019      	beq.n	80004d0 <HAL_DMA_IRQHandler+0x60>
 800049c:	3214      	adds	r2, #20
 800049e:	4293      	cmp	r3, r2
 80004a0:	d018      	beq.n	80004d4 <HAL_DMA_IRQHandler+0x64>
 80004a2:	3214      	adds	r2, #20
 80004a4:	4293      	cmp	r3, r2
 80004a6:	d017      	beq.n	80004d8 <HAL_DMA_IRQHandler+0x68>
 80004a8:	3214      	adds	r2, #20
 80004aa:	4293      	cmp	r3, r2
 80004ac:	d017      	beq.n	80004de <HAL_DMA_IRQHandler+0x6e>
 80004ae:	3214      	adds	r2, #20
 80004b0:	4293      	cmp	r3, r2
 80004b2:	d017      	beq.n	80004e4 <HAL_DMA_IRQHandler+0x74>
 80004b4:	3214      	adds	r2, #20
 80004b6:	4293      	cmp	r3, r2
 80004b8:	bf0c      	ite	eq
 80004ba:	f44f 0380 	moveq.w	r3, #4194304	; 0x400000
 80004be:	f04f 6380 	movne.w	r3, #67108864	; 0x4000000
 80004c2:	4a34      	ldr	r2, [pc, #208]	; (8000594 <HAL_DMA_IRQHandler+0x124>)
 80004c4:	6053      	str	r3, [r2, #4]
    if(hdma->XferHalfCpltCallback != NULL)
 80004c6:	6ac3      	ldr	r3, [r0, #44]	; 0x2c
    if (hdma->XferErrorCallback != NULL)
 80004c8:	2b00      	cmp	r3, #0
 80004ca:	d05e      	beq.n	800058a <HAL_DMA_IRQHandler+0x11a>
}
 80004cc:	bc70      	pop	{r4, r5, r6}
      hdma->XferErrorCallback(hdma);
 80004ce:	4718      	bx	r3
    __HAL_DMA_CLEAR_FLAG(hdma, __HAL_DMA_GET_HT_FLAG_INDEX(hdma));
 80004d0:	2304      	movs	r3, #4
 80004d2:	e7f6      	b.n	80004c2 <HAL_DMA_IRQHandler+0x52>
 80004d4:	2340      	movs	r3, #64	; 0x40
 80004d6:	e7f4      	b.n	80004c2 <HAL_DMA_IRQHandler+0x52>
 80004d8:	f44f 6380 	mov.w	r3, #1024	; 0x400
 80004dc:	e7f1      	b.n	80004c2 <HAL_DMA_IRQHandler+0x52>
 80004de:	f44f 4380 	mov.w	r3, #16384	; 0x4000
 80004e2:	e7ee      	b.n	80004c2 <HAL_DMA_IRQHandler+0x52>
 80004e4:	f44f 2380 	mov.w	r3, #262144	; 0x40000
 80004e8:	e7eb      	b.n	80004c2 <HAL_DMA_IRQHandler+0x52>
  else if (((flag_it & (DMA_FLAG_TC1 << hdma->ChannelIndex)) != RESET) && ((source_it & DMA_IT_TC) != RESET))
 80004ea:	2502      	movs	r5, #2
 80004ec:	4095      	lsls	r5, r2
 80004ee:	4225      	tst	r5, r4
 80004f0:	d035      	beq.n	800055e <HAL_DMA_IRQHandler+0xee>
 80004f2:	078d      	lsls	r5, r1, #30
 80004f4:	d533      	bpl.n	800055e <HAL_DMA_IRQHandler+0xee>
    if((hdma->Instance->CCR & DMA_CCR_CIRC) == 0U)
 80004f6:	681a      	ldr	r2, [r3, #0]
 80004f8:	0694      	lsls	r4, r2, #26
 80004fa:	d406      	bmi.n	800050a <HAL_DMA_IRQHandler+0x9a>
      __HAL_DMA_DISABLE_IT(hdma, DMA_IT_TE | DMA_IT_TC);  
 80004fc:	681a      	ldr	r2, [r3, #0]
 80004fe:	f022 020a 	bic.w	r2, r2, #10
 8000502:	601a      	str	r2, [r3, #0]
      hdma->State = HAL_DMA_STATE_READY;
 8000504:	2201      	movs	r2, #1
 8000506:	f880 2021 	strb.w	r2, [r0, #33]	; 0x21
      __HAL_DMA_CLEAR_FLAG(hdma, __HAL_DMA_GET_TC_FLAG_INDEX(hdma));
 800050a:	4a21      	ldr	r2, [pc, #132]	; (8000590 <HAL_DMA_IRQHandler+0x120>)
 800050c:	4293      	cmp	r3, r2
 800050e:	d019      	beq.n	8000544 <HAL_DMA_IRQHandler+0xd4>
 8000510:	3214      	adds	r2, #20
 8000512:	4293      	cmp	r3, r2
 8000514:	d018      	beq.n	8000548 <HAL_DMA_IRQHandler+0xd8>
 8000516:	3214      	adds	r2, #20
 8000518:	4293      	cmp	r3, r2
 800051a:	d017      	beq.n	800054c <HAL_DMA_IRQHandler+0xdc>
 800051c:	3214      	adds	r2, #20
 800051e:	4293      	cmp	r3, r2
 8000520:	d017      	beq.n	8000552 <HAL_DMA_IRQHandler+0xe2>
 8000522:	3214      	adds	r2, #20
 8000524:	4293      	cmp	r3, r2
 8000526:	d017      	beq.n	8000558 <HAL_DMA_IRQHandler+0xe8>
 8000528:	3214      	adds	r2, #20
 800052a:	4293      	cmp	r3, r2
 800052c:	bf0c      	ite	eq
 800052e:	f44f 1300 	moveq.w	r3, #2097152	; 0x200000
 8000532:	f04f 7300 	movne.w	r3, #33554432	; 0x2000000
 8000536:	4a17      	ldr	r2, [pc, #92]	; (8000594 <HAL_DMA_IRQHandler+0x124>)
 8000538:	6053      	str	r3, [r2, #4]
    __HAL_UNLOCK(hdma);
 800053a:	2300      	movs	r3, #0
 800053c:	f880 3020 	strb.w	r3, [r0, #32]
    if(hdma->XferCpltCallback != NULL)
 8000540:	6a83      	ldr	r3, [r0, #40]	; 0x28
 8000542:	e7c1      	b.n	80004c8 <HAL_DMA_IRQHandler+0x58>
      __HAL_DMA_CLEAR_FLAG(hdma, __HAL_DMA_GET_TC_FLAG_INDEX(hdma));
 8000544:	2302      	movs	r3, #2
 8000546:	e7f6      	b.n	8000536 <HAL_DMA_IRQHandler+0xc6>
 8000548:	2320      	movs	r3, #32
 800054a:	e7f4      	b.n	8000536 <HAL_DMA_IRQHandler+0xc6>
 800054c:	f44f 7300 	mov.w	r3, #512	; 0x200
 8000550:	e7f1      	b.n	8000536 <HAL_DMA_IRQHandler+0xc6>
 8000552:	f44f 5300 	mov.w	r3, #8192	; 0x2000
 8000556:	e7ee      	b.n	8000536 <HAL_DMA_IRQHandler+0xc6>
 8000558:	f44f 3300 	mov.w	r3, #131072	; 0x20000
 800055c:	e7eb      	b.n	8000536 <HAL_DMA_IRQHandler+0xc6>
  else if (( RESET != (flag_it & (DMA_FLAG_TE1 << hdma->ChannelIndex))) && (RESET != (source_it & DMA_IT_TE)))
 800055e:	2508      	movs	r5, #8
 8000560:	4095      	lsls	r5, r2
 8000562:	4225      	tst	r5, r4
 8000564:	d011      	beq.n	800058a <HAL_DMA_IRQHandler+0x11a>
 8000566:	0709      	lsls	r1, r1, #28
 8000568:	d50f      	bpl.n	800058a <HAL_DMA_IRQHandler+0x11a>
    __HAL_DMA_DISABLE_IT(hdma, (DMA_IT_TC | DMA_IT_HT | DMA_IT_TE));
 800056a:	6819      	ldr	r1, [r3, #0]
 800056c:	f021 010e 	bic.w	r1, r1, #14
 8000570:	6019      	str	r1, [r3, #0]
    hdma->DmaBaseAddress->IFCR = (DMA_ISR_GIF1 << hdma->ChannelIndex);
 8000572:	2301      	movs	r3, #1
 8000574:	fa03 f202 	lsl.w	r2, r3, r2
 8000578:	6072      	str	r2, [r6, #4]
    hdma->ErrorCode = HAL_DMA_ERROR_TE;
 800057a:	6383      	str	r3, [r0, #56]	; 0x38
    hdma->State = HAL_DMA_STATE_READY;
 800057c:	f880 3021 	strb.w	r3, [r0, #33]	; 0x21
    __HAL_UNLOCK(hdma);
 8000580:	2300      	movs	r3, #0
 8000582:	f880 3020 	strb.w	r3, [r0, #32]
    if (hdma->XferErrorCallback != NULL)
 8000586:	6b03      	ldr	r3, [r0, #48]	; 0x30
 8000588:	e79e      	b.n	80004c8 <HAL_DMA_IRQHandler+0x58>
}
 800058a:	bc70      	pop	{r4, r5, r6}
 800058c:	4770      	bx	lr
 800058e:	bf00      	nop
 8000590:	40020008 	.word	0x40020008
 8000594:	40020000 	.word	0x40020000

08000598 <HAL_GPIO_Init>:
  * @param  GPIO_Init: pointer to a GPIO_InitTypeDef structure that contains
  *         the configuration information for the specified GPIO peripheral.
  * @retval None
  */
void HAL_GPIO_Init(GPIO_TypeDef  *GPIOx, GPIO_InitTypeDef *GPIO_Init)
{
 8000598:	e92d 4ff7 	stmdb	sp!, {r0, r1, r2, r4, r5, r6, r7, r8, r9, sl, fp, lr}
  uint32_t position;
  uint32_t ioposition = 0x00U;
  uint32_t iocurrent = 0x00U;
  uint32_t temp = 0x00U;
  uint32_t config = 0x00U;
 800059c:	2200      	movs	r2, #0
  assert_param(IS_GPIO_ALL_INSTANCE(GPIOx));
  assert_param(IS_GPIO_PIN(GPIO_Init->Pin));
  assert_param(IS_GPIO_MODE(GPIO_Init->Mode));

  /* Configure the port pins */
  for (position = 0U; position < GPIO_NUMBER; position++)
 800059e:	4616      	mov	r6, r2
 80005a0:	4b65      	ldr	r3, [pc, #404]	; (8000738 <HAL_GPIO_Init+0x1a0>)
    {
      /* Check the Alternate function parameters */
      assert_param(IS_GPIO_AF_INSTANCE(GPIOx));

      /* Based on the required mode, filling config variable with MODEy[1:0] and CNFy[3:2] corresponding bits */
      switch (GPIO_Init->Mode)
 80005a2:	f8df e1a4 	ldr.w	lr, [pc, #420]	; 8000748 <HAL_GPIO_Init+0x1b0>
 80005a6:	f8df c1a4 	ldr.w	ip, [pc, #420]	; 800074c <HAL_GPIO_Init+0x1b4>
    ioposition = (0x01U << position);
 80005aa:	f04f 0801 	mov.w	r8, #1
    iocurrent = (uint32_t)(GPIO_Init->Pin) & ioposition;
 80005ae:	680c      	ldr	r4, [r1, #0]
    ioposition = (0x01U << position);
 80005b0:	fa08 f806 	lsl.w	r8, r8, r6
    iocurrent = (uint32_t)(GPIO_Init->Pin) & ioposition;
 80005b4:	ea08 0404 	and.w	r4, r8, r4
    if (iocurrent == ioposition)
 80005b8:	45a0      	cmp	r8, r4
 80005ba:	d17f      	bne.n	80006bc <HAL_GPIO_Init+0x124>
      switch (GPIO_Init->Mode)
 80005bc:	684d      	ldr	r5, [r1, #4]
 80005be:	2d12      	cmp	r5, #18
 80005c0:	f000 80af 	beq.w	8000722 <HAL_GPIO_Init+0x18a>
 80005c4:	f200 8088 	bhi.w	80006d8 <HAL_GPIO_Init+0x140>
 80005c8:	2d02      	cmp	r5, #2
 80005ca:	f000 80a7 	beq.w	800071c <HAL_GPIO_Init+0x184>
 80005ce:	d87c      	bhi.n	80006ca <HAL_GPIO_Init+0x132>
 80005d0:	2d00      	cmp	r5, #0
 80005d2:	f000 808e 	beq.w	80006f2 <HAL_GPIO_Init+0x15a>
 80005d6:	2d01      	cmp	r5, #1
 80005d8:	f000 809e 	beq.w	8000718 <HAL_GPIO_Init+0x180>
       in order to address CRH or CRL register*/
      configregister = (iocurrent < GPIO_PIN_8) ? &GPIOx->CRL     : &GPIOx->CRH;
      registeroffset = (iocurrent < GPIO_PIN_8) ? (position << 2U) : ((position - 8U) << 2U);

      /* Apply the new configuration of the pin to the register */
      MODIFY_REG((*configregister), ((GPIO_CRL_MODE0 | GPIO_CRL_CNF0) << registeroffset), (config << registeroffset));
 80005dc:	f04f 090f 	mov.w	r9, #15
      configregister = (iocurrent < GPIO_PIN_8) ? &GPIOx->CRL     : &GPIOx->CRH;
 80005e0:	2cff      	cmp	r4, #255	; 0xff
 80005e2:	bf93      	iteet	ls
 80005e4:	4682      	movls	sl, r0
 80005e6:	f106 4580 	addhi.w	r5, r6, #1073741824	; 0x40000000
 80005ea:	3d08      	subhi	r5, #8
 80005ec:	f8d0 b000 	ldrls.w	fp, [r0]
 80005f0:	bf92      	itee	ls
 80005f2:	00b5      	lslls	r5, r6, #2
 80005f4:	f8d0 b004 	ldrhi.w	fp, [r0, #4]
 80005f8:	00ad      	lslhi	r5, r5, #2
      MODIFY_REG((*configregister), ((GPIO_CRL_MODE0 | GPIO_CRL_CNF0) << registeroffset), (config << registeroffset));
 80005fa:	fa09 f805 	lsl.w	r8, r9, r5
 80005fe:	ea2b 0808 	bic.w	r8, fp, r8
 8000602:	fa02 f505 	lsl.w	r5, r2, r5
      configregister = (iocurrent < GPIO_PIN_8) ? &GPIOx->CRL     : &GPIOx->CRH;
 8000606:	bf88      	it	hi
 8000608:	f100 0a04 	addhi.w	sl, r0, #4
      MODIFY_REG((*configregister), ((GPIO_CRL_MODE0 | GPIO_CRL_CNF0) << registeroffset), (config << registeroffset));
 800060c:	ea48 0505 	orr.w	r5, r8, r5
 8000610:	f8ca 5000 	str.w	r5, [sl]

      /*--------------------- EXTI Mode Configuration ------------------------*/
      /* Configure the External Interrupt or event for the current IO */
      if ((GPIO_Init->Mode & EXTI_MODE) == EXTI_MODE)
 8000614:	f8d1 a004 	ldr.w	sl, [r1, #4]
 8000618:	f01a 5f80 	tst.w	sl, #268435456	; 0x10000000
 800061c:	d04e      	beq.n	80006bc <HAL_GPIO_Init+0x124>
      {
        /* Enable AFIO Clock */
        __HAL_RCC_AFIO_CLK_ENABLE();
 800061e:	4d47      	ldr	r5, [pc, #284]	; (800073c <HAL_GPIO_Init+0x1a4>)
 8000620:	4f46      	ldr	r7, [pc, #280]	; (800073c <HAL_GPIO_Init+0x1a4>)
 8000622:	69ad      	ldr	r5, [r5, #24]
 8000624:	f026 0803 	bic.w	r8, r6, #3
 8000628:	f045 0501 	orr.w	r5, r5, #1
 800062c:	61bd      	str	r5, [r7, #24]
 800062e:	69bd      	ldr	r5, [r7, #24]
 8000630:	f108 4880 	add.w	r8, r8, #1073741824	; 0x40000000
 8000634:	f005 0501 	and.w	r5, r5, #1
 8000638:	9501      	str	r5, [sp, #4]
 800063a:	f508 3880 	add.w	r8, r8, #65536	; 0x10000
        temp = AFIO->EXTICR[position >> 2U];
        CLEAR_BIT(temp, (0x0FU) << (4U * (position & 0x03U)));
 800063e:	f006 0b03 	and.w	fp, r6, #3
        __HAL_RCC_AFIO_CLK_ENABLE();
 8000642:	9d01      	ldr	r5, [sp, #4]
        CLEAR_BIT(temp, (0x0FU) << (4U * (position & 0x03U)));
 8000644:	ea4f 0b8b 	mov.w	fp, fp, lsl #2
        temp = AFIO->EXTICR[position >> 2U];
 8000648:	f8d8 5008 	ldr.w	r5, [r8, #8]
        CLEAR_BIT(temp, (0x0FU) << (4U * (position & 0x03U)));
 800064c:	fa09 f90b 	lsl.w	r9, r9, fp
 8000650:	ea25 0909 	bic.w	r9, r5, r9
        SET_BIT(temp, (GPIO_GET_INDEX(GPIOx)) << (4U * (position & 0x03U)));
 8000654:	4d3a      	ldr	r5, [pc, #232]	; (8000740 <HAL_GPIO_Init+0x1a8>)
 8000656:	42a8      	cmp	r0, r5
 8000658:	d068      	beq.n	800072c <HAL_GPIO_Init+0x194>
 800065a:	f505 6580 	add.w	r5, r5, #1024	; 0x400
 800065e:	42a8      	cmp	r0, r5
 8000660:	d066      	beq.n	8000730 <HAL_GPIO_Init+0x198>
 8000662:	f505 6580 	add.w	r5, r5, #1024	; 0x400
 8000666:	42a8      	cmp	r0, r5
 8000668:	d064      	beq.n	8000734 <HAL_GPIO_Init+0x19c>
 800066a:	f505 6580 	add.w	r5, r5, #1024	; 0x400
 800066e:	42a8      	cmp	r0, r5
 8000670:	bf0c      	ite	eq
 8000672:	2503      	moveq	r5, #3
 8000674:	2504      	movne	r5, #4
 8000676:	fa05 f50b 	lsl.w	r5, r5, fp
 800067a:	ea45 0509 	orr.w	r5, r5, r9
        AFIO->EXTICR[position >> 2U] = temp;
 800067e:	f8c8 5008 	str.w	r5, [r8, #8]


        /* Configure the interrupt mask */
        if ((GPIO_Init->Mode & GPIO_MODE_IT) == GPIO_MODE_IT)
        {
          SET_BIT(EXTI->IMR, iocurrent);
 8000682:	681d      	ldr	r5, [r3, #0]
        if ((GPIO_Init->Mode & GPIO_MODE_IT) == GPIO_MODE_IT)
 8000684:	f41a 3f80 	tst.w	sl, #65536	; 0x10000
          SET_BIT(EXTI->IMR, iocurrent);
 8000688:	bf14      	ite	ne
 800068a:	4325      	orrne	r5, r4
        }
        else
        {
          CLEAR_BIT(EXTI->IMR, iocurrent);
 800068c:	43a5      	biceq	r5, r4
 800068e:	601d      	str	r5, [r3, #0]
        }

        /* Configure the event mask */
        if ((GPIO_Init->Mode & GPIO_MODE_EVT) == GPIO_MODE_EVT)
        {
          SET_BIT(EXTI->EMR, iocurrent);
 8000690:	685d      	ldr	r5, [r3, #4]
        if ((GPIO_Init->Mode & GPIO_MODE_EVT) == GPIO_MODE_EVT)
 8000692:	f41a 3f00 	tst.w	sl, #131072	; 0x20000
          SET_BIT(EXTI->EMR, iocurrent);
 8000696:	bf14      	ite	ne
 8000698:	4325      	orrne	r5, r4
        }
        else
        {
          CLEAR_BIT(EXTI->EMR, iocurrent);
 800069a:	43a5      	biceq	r5, r4
 800069c:	605d      	str	r5, [r3, #4]
        }

        /* Enable or disable the rising trigger */
        if ((GPIO_Init->Mode & RISING_EDGE) == RISING_EDGE)
        {
          SET_BIT(EXTI->RTSR, iocurrent);
 800069e:	689d      	ldr	r5, [r3, #8]
        if ((GPIO_Init->Mode & RISING_EDGE) == RISING_EDGE)
 80006a0:	f41a 1f80 	tst.w	sl, #1048576	; 0x100000
          SET_BIT(EXTI->RTSR, iocurrent);
 80006a4:	bf14      	ite	ne
 80006a6:	4325      	orrne	r5, r4
        }
        else
        {
          CLEAR_BIT(EXTI->RTSR, iocurrent);
 80006a8:	43a5      	biceq	r5, r4
 80006aa:	609d      	str	r5, [r3, #8]
        }

        /* Enable or disable the falling trigger */
        if ((GPIO_Init->Mode & FALLING_EDGE) == FALLING_EDGE)
        {
          SET_BIT(EXTI->FTSR, iocurrent);
 80006ac:	68dd      	ldr	r5, [r3, #12]
        if ((GPIO_Init->Mode & FALLING_EDGE) == FALLING_EDGE)
 80006ae:	f41a 1f00 	tst.w	sl, #2097152	; 0x200000
          SET_BIT(EXTI->FTSR, iocurrent);
 80006b2:	bf14      	ite	ne
 80006b4:	432c      	orrne	r4, r5
        }
        else
        {
          CLEAR_BIT(EXTI->FTSR, iocurrent);
 80006b6:	ea25 0404 	biceq.w	r4, r5, r4
 80006ba:	60dc      	str	r4, [r3, #12]
  for (position = 0U; position < GPIO_NUMBER; position++)
 80006bc:	3601      	adds	r6, #1
 80006be:	2e10      	cmp	r6, #16
 80006c0:	f47f af73 	bne.w	80005aa <HAL_GPIO_Init+0x12>
        }
      }
    }
  }
}
 80006c4:	b003      	add	sp, #12
 80006c6:	e8bd 8ff0 	ldmia.w	sp!, {r4, r5, r6, r7, r8, r9, sl, fp, pc}
      switch (GPIO_Init->Mode)
 80006ca:	2d03      	cmp	r5, #3
 80006cc:	d022      	beq.n	8000714 <HAL_GPIO_Init+0x17c>
 80006ce:	2d11      	cmp	r5, #17
 80006d0:	d184      	bne.n	80005dc <HAL_GPIO_Init+0x44>
          config = GPIO_Init->Speed + GPIO_CR_CNF_GP_OUTPUT_OD;
 80006d2:	68ca      	ldr	r2, [r1, #12]
 80006d4:	3204      	adds	r2, #4
          break;
 80006d6:	e781      	b.n	80005dc <HAL_GPIO_Init+0x44>
      switch (GPIO_Init->Mode)
 80006d8:	4f1a      	ldr	r7, [pc, #104]	; (8000744 <HAL_GPIO_Init+0x1ac>)
 80006da:	42bd      	cmp	r5, r7
 80006dc:	d009      	beq.n	80006f2 <HAL_GPIO_Init+0x15a>
 80006de:	d812      	bhi.n	8000706 <HAL_GPIO_Init+0x16e>
 80006e0:	f8df 906c 	ldr.w	r9, [pc, #108]	; 8000750 <HAL_GPIO_Init+0x1b8>
 80006e4:	454d      	cmp	r5, r9
 80006e6:	d004      	beq.n	80006f2 <HAL_GPIO_Init+0x15a>
 80006e8:	f509 3980 	add.w	r9, r9, #65536	; 0x10000
 80006ec:	454d      	cmp	r5, r9
 80006ee:	f47f af75 	bne.w	80005dc <HAL_GPIO_Init+0x44>
          if (GPIO_Init->Pull == GPIO_NOPULL)
 80006f2:	688a      	ldr	r2, [r1, #8]
 80006f4:	b1c2      	cbz	r2, 8000728 <HAL_GPIO_Init+0x190>
          else if (GPIO_Init->Pull == GPIO_PULLUP)
 80006f6:	2a01      	cmp	r2, #1
            GPIOx->BSRR = ioposition;
 80006f8:	bf0c      	ite	eq
 80006fa:	f8c0 8010 	streq.w	r8, [r0, #16]
            GPIOx->BRR = ioposition;
 80006fe:	f8c0 8014 	strne.w	r8, [r0, #20]
            config = GPIO_CR_MODE_INPUT + GPIO_CR_CNF_INPUT_PU_PD;
 8000702:	2208      	movs	r2, #8
 8000704:	e76a      	b.n	80005dc <HAL_GPIO_Init+0x44>
      switch (GPIO_Init->Mode)
 8000706:	4575      	cmp	r5, lr
 8000708:	d0f3      	beq.n	80006f2 <HAL_GPIO_Init+0x15a>
 800070a:	4565      	cmp	r5, ip
 800070c:	d0f1      	beq.n	80006f2 <HAL_GPIO_Init+0x15a>
 800070e:	f8df 9044 	ldr.w	r9, [pc, #68]	; 8000754 <HAL_GPIO_Init+0x1bc>
 8000712:	e7eb      	b.n	80006ec <HAL_GPIO_Init+0x154>
          config = GPIO_CR_MODE_INPUT + GPIO_CR_CNF_ANALOG;
 8000714:	2200      	movs	r2, #0
 8000716:	e761      	b.n	80005dc <HAL_GPIO_Init+0x44>
          config = GPIO_Init->Speed + GPIO_CR_CNF_GP_OUTPUT_PP;
 8000718:	68ca      	ldr	r2, [r1, #12]
          break;
 800071a:	e75f      	b.n	80005dc <HAL_GPIO_Init+0x44>
          config = GPIO_Init->Speed + GPIO_CR_CNF_AF_OUTPUT_PP;
 800071c:	68ca      	ldr	r2, [r1, #12]
 800071e:	3208      	adds	r2, #8
          break;
 8000720:	e75c      	b.n	80005dc <HAL_GPIO_Init+0x44>
          config = GPIO_Init->Speed + GPIO_CR_CNF_AF_OUTPUT_OD;
 8000722:	68ca      	ldr	r2, [r1, #12]
 8000724:	320c      	adds	r2, #12
          break;
 8000726:	e759      	b.n	80005dc <HAL_GPIO_Init+0x44>
            config = GPIO_CR_MODE_INPUT + GPIO_CR_CNF_INPUT_FLOATING;
 8000728:	2204      	movs	r2, #4
 800072a:	e757      	b.n	80005dc <HAL_GPIO_Init+0x44>
        SET_BIT(temp, (GPIO_GET_INDEX(GPIOx)) << (4U * (position & 0x03U)));
 800072c:	2500      	movs	r5, #0
 800072e:	e7a2      	b.n	8000676 <HAL_GPIO_Init+0xde>
 8000730:	2501      	movs	r5, #1
 8000732:	e7a0      	b.n	8000676 <HAL_GPIO_Init+0xde>
 8000734:	2502      	movs	r5, #2
 8000736:	e79e      	b.n	8000676 <HAL_GPIO_Init+0xde>
 8000738:	40010400 	.word	0x40010400
 800073c:	40021000 	.word	0x40021000
 8000740:	40010800 	.word	0x40010800
 8000744:	10210000 	.word	0x10210000
 8000748:	10310000 	.word	0x10310000
 800074c:	10320000 	.word	0x10320000
 8000750:	10110000 	.word	0x10110000
 8000754:	10220000 	.word	0x10220000

08000758 <HAL_GPIO_WritePin>:
{
  /* Check the parameters */
  assert_param(IS_GPIO_PIN(GPIO_Pin));
  assert_param(IS_GPIO_PIN_ACTION(PinState));

  if (PinState != GPIO_PIN_RESET)
 8000758:	b10a      	cbz	r2, 800075e <HAL_GPIO_WritePin+0x6>
  {
    GPIOx->BSRR = GPIO_Pin;
  }
  else
  {
    GPIOx->BSRR = (uint32_t)GPIO_Pin << 16U;
 800075a:	6101      	str	r1, [r0, #16]
 800075c:	4770      	bx	lr
 800075e:	0409      	lsls	r1, r1, #16
 8000760:	e7fb      	b.n	800075a <HAL_GPIO_WritePin+0x2>

08000762 <HAL_GPIO_TogglePin>:
void HAL_GPIO_TogglePin(GPIO_TypeDef *GPIOx, uint16_t GPIO_Pin)
{
  /* Check the parameters */
  assert_param(IS_GPIO_PIN(GPIO_Pin));

  GPIOx->ODR ^= GPIO_Pin;
 8000762:	68c3      	ldr	r3, [r0, #12]
 8000764:	4059      	eors	r1, r3
 8000766:	60c1      	str	r1, [r0, #12]
 8000768:	4770      	bx	lr

0800076a <PWR_OverloadWfe>:

/* Private functions ---------------------------------------------------------*/
__NOINLINE
static void PWR_OverloadWfe(void)
{
  __asm volatile( "wfe" );
 800076a:	bf20      	wfe
  __asm volatile( "nop" );
 800076c:	bf00      	nop
 800076e:	4770      	bx	lr

08000770 <HAL_PWR_EnableBkUpAccess>:
  * @retval None
  */
void HAL_PWR_EnableBkUpAccess(void)
{
  /* Enable access to RTC and backup registers */
  *(__IO uint32_t *) CR_DBP_BB = (uint32_t)ENABLE;
 8000770:	2201      	movs	r2, #1
 8000772:	4b01      	ldr	r3, [pc, #4]	; (8000778 <HAL_PWR_EnableBkUpAccess+0x8>)
 8000774:	601a      	str	r2, [r3, #0]
 8000776:	4770      	bx	lr
 8000778:	420e0020 	.word	0x420e0020

0800077c <HAL_PWR_EnterSTOPMode>:
  /* Check the parameters */
  assert_param(IS_PWR_REGULATOR(Regulator));
  assert_param(IS_PWR_STOP_ENTRY(STOPEntry));

  /* Clear PDDS bit in PWR register to specify entering in STOP mode when CPU enter in Deepsleep */ 
  CLEAR_BIT(PWR->CR,  PWR_CR_PDDS);
 800077c:	4a0f      	ldr	r2, [pc, #60]	; (80007bc <HAL_PWR_EnterSTOPMode+0x40>)
{
 800077e:	b508      	push	{r3, lr}
  CLEAR_BIT(PWR->CR,  PWR_CR_PDDS);
 8000780:	6813      	ldr	r3, [r2, #0]

  /* Set SLEEPDEEP bit of Cortex System Control Register */
  SET_BIT(SCB->SCR, ((uint32_t)SCB_SCR_SLEEPDEEP_Msk));

  /* Select Stop mode entry --------------------------------------------------*/
  if(STOPEntry == PWR_STOPENTRY_WFI)
 8000782:	2901      	cmp	r1, #1
  CLEAR_BIT(PWR->CR,  PWR_CR_PDDS);
 8000784:	f023 0302 	bic.w	r3, r3, #2
 8000788:	6013      	str	r3, [r2, #0]
  MODIFY_REG(PWR->CR, PWR_CR_LPDS, Regulator);
 800078a:	6813      	ldr	r3, [r2, #0]
 800078c:	f023 0301 	bic.w	r3, r3, #1
 8000790:	ea40 0003 	orr.w	r0, r0, r3
  SET_BIT(SCB->SCR, ((uint32_t)SCB_SCR_SLEEPDEEP_Msk));
 8000794:	4b0a      	ldr	r3, [pc, #40]	; (80007c0 <HAL_PWR_EnterSTOPMode+0x44>)
  MODIFY_REG(PWR->CR, PWR_CR_LPDS, Regulator);
 8000796:	6010      	str	r0, [r2, #0]
  SET_BIT(SCB->SCR, ((uint32_t)SCB_SCR_SLEEPDEEP_Msk));
 8000798:	691a      	ldr	r2, [r3, #16]
 800079a:	f042 0204 	orr.w	r2, r2, #4
 800079e:	611a      	str	r2, [r3, #16]
  if(STOPEntry == PWR_STOPENTRY_WFI)
 80007a0:	d105      	bne.n	80007ae <HAL_PWR_EnterSTOPMode+0x32>
  \brief   Wait For Interrupt
  \details Wait For Interrupt is a hint instruction that suspends execution until one of a number of events occurs.
 */
__attribute__((always_inline)) __STATIC_INLINE void __WFI(void)
{
  __ASM volatile ("wfi");
 80007a2:	bf30      	wfi
    __SEV();
    PWR_OverloadWfe(); /* WFE redefine locally */
    PWR_OverloadWfe(); /* WFE redefine locally */
  }
  /* Reset SLEEPDEEP bit of Cortex System Control Register */
  CLEAR_BIT(SCB->SCR, ((uint32_t)SCB_SCR_SLEEPDEEP_Msk));
 80007a4:	691a      	ldr	r2, [r3, #16]
 80007a6:	f022 0204 	bic.w	r2, r2, #4
 80007aa:	611a      	str	r2, [r3, #16]
 80007ac:	bd08      	pop	{r3, pc}
  \brief   Send Event
  \details Send Event is a hint instruction. It causes an event to be signaled to the CPU.
 */
__attribute__((always_inline)) __STATIC_INLINE void __SEV(void)
{
  __ASM volatile ("sev");
 80007ae:	bf40      	sev
    PWR_OverloadWfe(); /* WFE redefine locally */
 80007b0:	f7ff ffdb 	bl	800076a <PWR_OverloadWfe>
    PWR_OverloadWfe(); /* WFE redefine locally */
 80007b4:	f7ff ffd9 	bl	800076a <PWR_OverloadWfe>
 80007b8:	e7f4      	b.n	80007a4 <HAL_PWR_EnterSTOPMode+0x28>
 80007ba:	bf00      	nop
 80007bc:	40007000 	.word	0x40007000
 80007c0:	e000ed00 	.word	0xe000ed00

080007c4 <HAL_RCC_OscConfig>:
  /* Check the parameters */
  assert_param(RCC_OscInitStruct != NULL);
  assert_param(IS_RCC_OSCILLATORTYPE(RCC_OscInitStruct->OscillatorType));
  
  /*------------------------------- HSE Configuration ------------------------*/ 
  if(((RCC_OscInitStruct->OscillatorType) & RCC_OSCILLATORTYPE_HSE) == RCC_OSCILLATORTYPE_HSE)
 80007c4:	6803      	ldr	r3, [r0, #0]
{
 80007c6:	e92d 41f3 	stmdb	sp!, {r0, r1, r4, r5, r6, r7, r8, lr}
  if(((RCC_OscInitStruct->OscillatorType) & RCC_OSCILLATORTYPE_HSE) == RCC_OSCILLATORTYPE_HSE)
 80007ca:	07db      	lsls	r3, r3, #31
{
 80007cc:	4605      	mov	r5, r0
  if(((RCC_OscInitStruct->OscillatorType) & RCC_OSCILLATORTYPE_HSE) == RCC_OSCILLATORTYPE_HSE)
 80007ce:	d410      	bmi.n	80007f2 <HAL_RCC_OscConfig+0x2e>
        }
      }
    }
  }
  /*----------------------------- HSI Configuration --------------------------*/ 
  if(((RCC_OscInitStruct->OscillatorType) & RCC_OSCILLATORTYPE_HSI) == RCC_OSCILLATORTYPE_HSI)
 80007d0:	682b      	ldr	r3, [r5, #0]
 80007d2:	079f      	lsls	r7, r3, #30
 80007d4:	d45e      	bmi.n	8000894 <HAL_RCC_OscConfig+0xd0>
        }
      }
    }
  }
  /*------------------------------ LSI Configuration -------------------------*/ 
  if(((RCC_OscInitStruct->OscillatorType) & RCC_OSCILLATORTYPE_LSI) == RCC_OSCILLATORTYPE_LSI)
 80007d6:	682b      	ldr	r3, [r5, #0]
 80007d8:	0719      	lsls	r1, r3, #28
 80007da:	f100 8095 	bmi.w	8000908 <HAL_RCC_OscConfig+0x144>
        }
      }
    }
  }
  /*------------------------------ LSE Configuration -------------------------*/ 
  if(((RCC_OscInitStruct->OscillatorType) & RCC_OSCILLATORTYPE_LSE) == RCC_OSCILLATORTYPE_LSE)
 80007de:	682b      	ldr	r3, [r5, #0]
 80007e0:	075a      	lsls	r2, r3, #29
 80007e2:	f100 80bf 	bmi.w	8000964 <HAL_RCC_OscConfig+0x1a0>

#endif /* RCC_CR_PLL2ON */
  /*-------------------------------- PLL Configuration -----------------------*/
  /* Check the parameters */
  assert_param(IS_RCC_PLL(RCC_OscInitStruct->PLL.PLLState));
  if ((RCC_OscInitStruct->PLL.PLLState) != RCC_PLL_NONE)
 80007e6:	69ea      	ldr	r2, [r5, #28]
 80007e8:	2a00      	cmp	r2, #0
 80007ea:	f040 812d 	bne.w	8000a48 <HAL_RCC_OscConfig+0x284>
    {
      return HAL_ERROR;
    }
  }
  
  return HAL_OK;
 80007ee:	2000      	movs	r0, #0
 80007f0:	e014      	b.n	800081c <HAL_RCC_OscConfig+0x58>
    if((__HAL_RCC_GET_SYSCLK_SOURCE() == RCC_SYSCLKSOURCE_STATUS_HSE) 
 80007f2:	4c90      	ldr	r4, [pc, #576]	; (8000a34 <HAL_RCC_OscConfig+0x270>)
 80007f4:	6863      	ldr	r3, [r4, #4]
 80007f6:	f003 030c 	and.w	r3, r3, #12
 80007fa:	2b04      	cmp	r3, #4
 80007fc:	d007      	beq.n	800080e <HAL_RCC_OscConfig+0x4a>
       || ((__HAL_RCC_GET_SYSCLK_SOURCE() == RCC_SYSCLKSOURCE_STATUS_PLLCLK) && (__HAL_RCC_GET_PLL_OSCSOURCE() == RCC_PLLSOURCE_HSE)))
 80007fe:	6863      	ldr	r3, [r4, #4]
 8000800:	f003 030c 	and.w	r3, r3, #12
 8000804:	2b08      	cmp	r3, #8
 8000806:	d10c      	bne.n	8000822 <HAL_RCC_OscConfig+0x5e>
 8000808:	6863      	ldr	r3, [r4, #4]
 800080a:	03de      	lsls	r6, r3, #15
 800080c:	d509      	bpl.n	8000822 <HAL_RCC_OscConfig+0x5e>
      if((__HAL_RCC_GET_FLAG(RCC_FLAG_HSERDY) != RESET) && (RCC_OscInitStruct->HSEState == RCC_HSE_OFF))
 800080e:	6823      	ldr	r3, [r4, #0]
 8000810:	039c      	lsls	r4, r3, #14
 8000812:	d5dd      	bpl.n	80007d0 <HAL_RCC_OscConfig+0xc>
 8000814:	686b      	ldr	r3, [r5, #4]
 8000816:	2b00      	cmp	r3, #0
 8000818:	d1da      	bne.n	80007d0 <HAL_RCC_OscConfig+0xc>
        return HAL_ERROR;
 800081a:	2001      	movs	r0, #1
}
 800081c:	b002      	add	sp, #8
 800081e:	e8bd 81f0 	ldmia.w	sp!, {r4, r5, r6, r7, r8, pc}
      __HAL_RCC_HSE_CONFIG(RCC_OscInitStruct->HSEState);
 8000822:	686b      	ldr	r3, [r5, #4]
 8000824:	f5b3 3f80 	cmp.w	r3, #65536	; 0x10000
 8000828:	d110      	bne.n	800084c <HAL_RCC_OscConfig+0x88>
 800082a:	6823      	ldr	r3, [r4, #0]
 800082c:	f443 3380 	orr.w	r3, r3, #65536	; 0x10000
 8000830:	6023      	str	r3, [r4, #0]
        tickstart = HAL_GetTick();
 8000832:	f7ff fcd3 	bl	80001dc <HAL_GetTick>
 8000836:	4606      	mov	r6, r0
        while(__HAL_RCC_GET_FLAG(RCC_FLAG_HSERDY) == RESET)
 8000838:	6823      	ldr	r3, [r4, #0]
 800083a:	0398      	lsls	r0, r3, #14
 800083c:	d4c8      	bmi.n	80007d0 <HAL_RCC_OscConfig+0xc>
          if((HAL_GetTick() - tickstart ) > HSE_TIMEOUT_VALUE)
 800083e:	f7ff fccd 	bl	80001dc <HAL_GetTick>
 8000842:	1b80      	subs	r0, r0, r6
 8000844:	2864      	cmp	r0, #100	; 0x64
 8000846:	d9f7      	bls.n	8000838 <HAL_RCC_OscConfig+0x74>
            return HAL_TIMEOUT;
 8000848:	2003      	movs	r0, #3
 800084a:	e7e7      	b.n	800081c <HAL_RCC_OscConfig+0x58>
      __HAL_RCC_HSE_CONFIG(RCC_OscInitStruct->HSEState);
 800084c:	b99b      	cbnz	r3, 8000876 <HAL_RCC_OscConfig+0xb2>
 800084e:	6823      	ldr	r3, [r4, #0]
 8000850:	f423 3380 	bic.w	r3, r3, #65536	; 0x10000
 8000854:	6023      	str	r3, [r4, #0]
 8000856:	6823      	ldr	r3, [r4, #0]
 8000858:	f423 2380 	bic.w	r3, r3, #262144	; 0x40000
 800085c:	6023      	str	r3, [r4, #0]
        tickstart = HAL_GetTick();
 800085e:	f7ff fcbd 	bl	80001dc <HAL_GetTick>
 8000862:	4606      	mov	r6, r0
        while(__HAL_RCC_GET_FLAG(RCC_FLAG_HSERDY) != RESET)
 8000864:	6823      	ldr	r3, [r4, #0]
 8000866:	0399      	lsls	r1, r3, #14
 8000868:	d5b2      	bpl.n	80007d0 <HAL_RCC_OscConfig+0xc>
           if((HAL_GetTick() - tickstart ) > HSE_TIMEOUT_VALUE)
 800086a:	f7ff fcb7 	bl	80001dc <HAL_GetTick>
 800086e:	1b80      	subs	r0, r0, r6
 8000870:	2864      	cmp	r0, #100	; 0x64
 8000872:	d9f7      	bls.n	8000864 <HAL_RCC_OscConfig+0xa0>
 8000874:	e7e8      	b.n	8000848 <HAL_RCC_OscConfig+0x84>
      __HAL_RCC_HSE_CONFIG(RCC_OscInitStruct->HSEState);
 8000876:	f5b3 2fa0 	cmp.w	r3, #327680	; 0x50000
 800087a:	6823      	ldr	r3, [r4, #0]
 800087c:	d103      	bne.n	8000886 <HAL_RCC_OscConfig+0xc2>
 800087e:	f443 2380 	orr.w	r3, r3, #262144	; 0x40000
 8000882:	6023      	str	r3, [r4, #0]
 8000884:	e7d1      	b.n	800082a <HAL_RCC_OscConfig+0x66>
 8000886:	f423 3380 	bic.w	r3, r3, #65536	; 0x10000
 800088a:	6023      	str	r3, [r4, #0]
 800088c:	6823      	ldr	r3, [r4, #0]
 800088e:	f423 2380 	bic.w	r3, r3, #262144	; 0x40000
 8000892:	e7cd      	b.n	8000830 <HAL_RCC_OscConfig+0x6c>
    if((__HAL_RCC_GET_SYSCLK_SOURCE() == RCC_SYSCLKSOURCE_STATUS_HSI) 
 8000894:	4c67      	ldr	r4, [pc, #412]	; (8000a34 <HAL_RCC_OscConfig+0x270>)
 8000896:	6863      	ldr	r3, [r4, #4]
 8000898:	f013 0f0c 	tst.w	r3, #12
 800089c:	d007      	beq.n	80008ae <HAL_RCC_OscConfig+0xea>
       || ((__HAL_RCC_GET_SYSCLK_SOURCE() == RCC_SYSCLKSOURCE_STATUS_PLLCLK) && (__HAL_RCC_GET_PLL_OSCSOURCE() == RCC_PLLSOURCE_HSI_DIV2)))
 800089e:	6863      	ldr	r3, [r4, #4]
 80008a0:	f003 030c 	and.w	r3, r3, #12
 80008a4:	2b08      	cmp	r3, #8
 80008a6:	d110      	bne.n	80008ca <HAL_RCC_OscConfig+0x106>
 80008a8:	6863      	ldr	r3, [r4, #4]
 80008aa:	03da      	lsls	r2, r3, #15
 80008ac:	d40d      	bmi.n	80008ca <HAL_RCC_OscConfig+0x106>
      if((__HAL_RCC_GET_FLAG(RCC_FLAG_HSIRDY) != RESET) && (RCC_OscInitStruct->HSIState != RCC_HSI_ON))
 80008ae:	6823      	ldr	r3, [r4, #0]
 80008b0:	079b      	lsls	r3, r3, #30
 80008b2:	d502      	bpl.n	80008ba <HAL_RCC_OscConfig+0xf6>
 80008b4:	692b      	ldr	r3, [r5, #16]
 80008b6:	2b01      	cmp	r3, #1
 80008b8:	d1af      	bne.n	800081a <HAL_RCC_OscConfig+0x56>
        __HAL_RCC_HSI_CALIBRATIONVALUE_ADJUST(RCC_OscInitStruct->HSICalibrationValue);
 80008ba:	6823      	ldr	r3, [r4, #0]
 80008bc:	696a      	ldr	r2, [r5, #20]
 80008be:	f023 03f8 	bic.w	r3, r3, #248	; 0xf8
 80008c2:	ea43 03c2 	orr.w	r3, r3, r2, lsl #3
 80008c6:	6023      	str	r3, [r4, #0]
 80008c8:	e785      	b.n	80007d6 <HAL_RCC_OscConfig+0x12>
      if(RCC_OscInitStruct->HSIState != RCC_HSI_OFF)
 80008ca:	692a      	ldr	r2, [r5, #16]
 80008cc:	4b5a      	ldr	r3, [pc, #360]	; (8000a38 <HAL_RCC_OscConfig+0x274>)
 80008ce:	b16a      	cbz	r2, 80008ec <HAL_RCC_OscConfig+0x128>
        __HAL_RCC_HSI_ENABLE();
 80008d0:	2201      	movs	r2, #1
 80008d2:	601a      	str	r2, [r3, #0]
        tickstart = HAL_GetTick();
 80008d4:	f7ff fc82 	bl	80001dc <HAL_GetTick>
 80008d8:	4606      	mov	r6, r0
        while(__HAL_RCC_GET_FLAG(RCC_FLAG_HSIRDY) == RESET)
 80008da:	6823      	ldr	r3, [r4, #0]
 80008dc:	079f      	lsls	r7, r3, #30
 80008de:	d4ec      	bmi.n	80008ba <HAL_RCC_OscConfig+0xf6>
          if((HAL_GetTick() - tickstart ) > HSI_TIMEOUT_VALUE)
 80008e0:	f7ff fc7c 	bl	80001dc <HAL_GetTick>
 80008e4:	1b80      	subs	r0, r0, r6
 80008e6:	2802      	cmp	r0, #2
 80008e8:	d9f7      	bls.n	80008da <HAL_RCC_OscConfig+0x116>
 80008ea:	e7ad      	b.n	8000848 <HAL_RCC_OscConfig+0x84>
        __HAL_RCC_HSI_DISABLE();
 80008ec:	601a      	str	r2, [r3, #0]
        tickstart = HAL_GetTick();
 80008ee:	f7ff fc75 	bl	80001dc <HAL_GetTick>
 80008f2:	4606      	mov	r6, r0
        while(__HAL_RCC_GET_FLAG(RCC_FLAG_HSIRDY) != RESET)
 80008f4:	6823      	ldr	r3, [r4, #0]
 80008f6:	0798      	lsls	r0, r3, #30
 80008f8:	f57f af6d 	bpl.w	80007d6 <HAL_RCC_OscConfig+0x12>
          if((HAL_GetTick() - tickstart ) > HSI_TIMEOUT_VALUE)
 80008fc:	f7ff fc6e 	bl	80001dc <HAL_GetTick>
 8000900:	1b80      	subs	r0, r0, r6
 8000902:	2802      	cmp	r0, #2
 8000904:	d9f6      	bls.n	80008f4 <HAL_RCC_OscConfig+0x130>
 8000906:	e79f      	b.n	8000848 <HAL_RCC_OscConfig+0x84>
    if(RCC_OscInitStruct->LSIState != RCC_LSI_OFF)
 8000908:	69aa      	ldr	r2, [r5, #24]
 800090a:	4c4a      	ldr	r4, [pc, #296]	; (8000a34 <HAL_RCC_OscConfig+0x270>)
 800090c:	4b4b      	ldr	r3, [pc, #300]	; (8000a3c <HAL_RCC_OscConfig+0x278>)
 800090e:	b1da      	cbz	r2, 8000948 <HAL_RCC_OscConfig+0x184>
      __HAL_RCC_LSI_ENABLE();
 8000910:	2201      	movs	r2, #1
 8000912:	601a      	str	r2, [r3, #0]
      tickstart = HAL_GetTick();
 8000914:	f7ff fc62 	bl	80001dc <HAL_GetTick>
 8000918:	4606      	mov	r6, r0
      while(__HAL_RCC_GET_FLAG(RCC_FLAG_LSIRDY) == RESET)
 800091a:	6a63      	ldr	r3, [r4, #36]	; 0x24
 800091c:	079b      	lsls	r3, r3, #30
 800091e:	d50d      	bpl.n	800093c <HAL_RCC_OscConfig+0x178>
  * @param  mdelay: specifies the delay time length, in milliseconds.
  * @retval None
  */
static void RCC_Delay(uint32_t mdelay)
{
  __IO uint32_t Delay = mdelay * (SystemCoreClock / 8U / 1000U);
 8000920:	f44f 52fa 	mov.w	r2, #8000	; 0x1f40
 8000924:	4b46      	ldr	r3, [pc, #280]	; (8000a40 <HAL_RCC_OscConfig+0x27c>)
 8000926:	681b      	ldr	r3, [r3, #0]
 8000928:	fbb3 f3f2 	udiv	r3, r3, r2
 800092c:	9301      	str	r3, [sp, #4]
  __ASM volatile ("nop");
 800092e:	bf00      	nop
  do 
  {
    __NOP();
  } 
  while (Delay --);
 8000930:	9b01      	ldr	r3, [sp, #4]
 8000932:	1e5a      	subs	r2, r3, #1
 8000934:	9201      	str	r2, [sp, #4]
 8000936:	2b00      	cmp	r3, #0
 8000938:	d1f9      	bne.n	800092e <HAL_RCC_OscConfig+0x16a>
 800093a:	e750      	b.n	80007de <HAL_RCC_OscConfig+0x1a>
        if((HAL_GetTick() - tickstart ) > LSI_TIMEOUT_VALUE)
 800093c:	f7ff fc4e 	bl	80001dc <HAL_GetTick>
 8000940:	1b80      	subs	r0, r0, r6
 8000942:	2802      	cmp	r0, #2
 8000944:	d9e9      	bls.n	800091a <HAL_RCC_OscConfig+0x156>
 8000946:	e77f      	b.n	8000848 <HAL_RCC_OscConfig+0x84>
      __HAL_RCC_LSI_DISABLE();
 8000948:	601a      	str	r2, [r3, #0]
      tickstart = HAL_GetTick();
 800094a:	f7ff fc47 	bl	80001dc <HAL_GetTick>
 800094e:	4606      	mov	r6, r0
      while(__HAL_RCC_GET_FLAG(RCC_FLAG_LSIRDY) != RESET)
 8000950:	6a63      	ldr	r3, [r4, #36]	; 0x24
 8000952:	079f      	lsls	r7, r3, #30
 8000954:	f57f af43 	bpl.w	80007de <HAL_RCC_OscConfig+0x1a>
        if((HAL_GetTick() - tickstart ) > LSI_TIMEOUT_VALUE)
 8000958:	f7ff fc40 	bl	80001dc <HAL_GetTick>
 800095c:	1b80      	subs	r0, r0, r6
 800095e:	2802      	cmp	r0, #2
 8000960:	d9f6      	bls.n	8000950 <HAL_RCC_OscConfig+0x18c>
 8000962:	e771      	b.n	8000848 <HAL_RCC_OscConfig+0x84>
    if(__HAL_RCC_PWR_IS_CLK_DISABLED())
 8000964:	4c33      	ldr	r4, [pc, #204]	; (8000a34 <HAL_RCC_OscConfig+0x270>)
 8000966:	69e3      	ldr	r3, [r4, #28]
 8000968:	00d8      	lsls	r0, r3, #3
 800096a:	d424      	bmi.n	80009b6 <HAL_RCC_OscConfig+0x1f2>
      pwrclkchanged = SET;
 800096c:	2701      	movs	r7, #1
      __HAL_RCC_PWR_CLK_ENABLE();
 800096e:	69e3      	ldr	r3, [r4, #28]
 8000970:	f043 5380 	orr.w	r3, r3, #268435456	; 0x10000000
 8000974:	61e3      	str	r3, [r4, #28]
 8000976:	69e3      	ldr	r3, [r4, #28]
 8000978:	f003 5380 	and.w	r3, r3, #268435456	; 0x10000000
 800097c:	9300      	str	r3, [sp, #0]
 800097e:	9b00      	ldr	r3, [sp, #0]
    if(HAL_IS_BIT_CLR(PWR->CR, PWR_CR_DBP))
 8000980:	4e30      	ldr	r6, [pc, #192]	; (8000a44 <HAL_RCC_OscConfig+0x280>)
 8000982:	6833      	ldr	r3, [r6, #0]
 8000984:	05d9      	lsls	r1, r3, #23
 8000986:	d518      	bpl.n	80009ba <HAL_RCC_OscConfig+0x1f6>
    __HAL_RCC_LSE_CONFIG(RCC_OscInitStruct->LSEState);
 8000988:	68eb      	ldr	r3, [r5, #12]
 800098a:	2b01      	cmp	r3, #1
 800098c:	d126      	bne.n	80009dc <HAL_RCC_OscConfig+0x218>
 800098e:	6a23      	ldr	r3, [r4, #32]
 8000990:	f043 0301 	orr.w	r3, r3, #1
 8000994:	6223      	str	r3, [r4, #32]
      tickstart = HAL_GetTick();
 8000996:	f7ff fc21 	bl	80001dc <HAL_GetTick>
        if((HAL_GetTick() - tickstart ) > RCC_LSE_TIMEOUT_VALUE)
 800099a:	f241 3688 	movw	r6, #5000	; 0x1388
      tickstart = HAL_GetTick();
 800099e:	4680      	mov	r8, r0
      while(__HAL_RCC_GET_FLAG(RCC_FLAG_LSERDY) == RESET)
 80009a0:	6a23      	ldr	r3, [r4, #32]
 80009a2:	079b      	lsls	r3, r3, #30
 80009a4:	d53f      	bpl.n	8000a26 <HAL_RCC_OscConfig+0x262>
    if(pwrclkchanged == SET)
 80009a6:	2f00      	cmp	r7, #0
 80009a8:	f43f af1d 	beq.w	80007e6 <HAL_RCC_OscConfig+0x22>
      __HAL_RCC_PWR_CLK_DISABLE();
 80009ac:	69e3      	ldr	r3, [r4, #28]
 80009ae:	f023 5380 	bic.w	r3, r3, #268435456	; 0x10000000
 80009b2:	61e3      	str	r3, [r4, #28]
 80009b4:	e717      	b.n	80007e6 <HAL_RCC_OscConfig+0x22>
    FlagStatus       pwrclkchanged = RESET;
 80009b6:	2700      	movs	r7, #0
 80009b8:	e7e2      	b.n	8000980 <HAL_RCC_OscConfig+0x1bc>
      SET_BIT(PWR->CR, PWR_CR_DBP);
 80009ba:	6833      	ldr	r3, [r6, #0]
 80009bc:	f443 7380 	orr.w	r3, r3, #256	; 0x100
 80009c0:	6033      	str	r3, [r6, #0]
      tickstart = HAL_GetTick();
 80009c2:	f7ff fc0b 	bl	80001dc <HAL_GetTick>
 80009c6:	4680      	mov	r8, r0
      while(HAL_IS_BIT_CLR(PWR->CR, PWR_CR_DBP))
 80009c8:	6833      	ldr	r3, [r6, #0]
 80009ca:	05da      	lsls	r2, r3, #23
 80009cc:	d4dc      	bmi.n	8000988 <HAL_RCC_OscConfig+0x1c4>
        if((HAL_GetTick() - tickstart) > RCC_DBP_TIMEOUT_VALUE)
 80009ce:	f7ff fc05 	bl	80001dc <HAL_GetTick>
 80009d2:	eba0 0008 	sub.w	r0, r0, r8
 80009d6:	2864      	cmp	r0, #100	; 0x64
 80009d8:	d9f6      	bls.n	80009c8 <HAL_RCC_OscConfig+0x204>
 80009da:	e735      	b.n	8000848 <HAL_RCC_OscConfig+0x84>
    __HAL_RCC_LSE_CONFIG(RCC_OscInitStruct->LSEState);
 80009dc:	b9ab      	cbnz	r3, 8000a0a <HAL_RCC_OscConfig+0x246>
 80009de:	6a23      	ldr	r3, [r4, #32]
        if((HAL_GetTick() - tickstart ) > RCC_LSE_TIMEOUT_VALUE)
 80009e0:	f241 3888 	movw	r8, #5000	; 0x1388
    __HAL_RCC_LSE_CONFIG(RCC_OscInitStruct->LSEState);
 80009e4:	f023 0301 	bic.w	r3, r3, #1
 80009e8:	6223      	str	r3, [r4, #32]
 80009ea:	6a23      	ldr	r3, [r4, #32]
 80009ec:	f023 0304 	bic.w	r3, r3, #4
 80009f0:	6223      	str	r3, [r4, #32]
      tickstart = HAL_GetTick();
 80009f2:	f7ff fbf3 	bl	80001dc <HAL_GetTick>
 80009f6:	4606      	mov	r6, r0
      while(__HAL_RCC_GET_FLAG(RCC_FLAG_LSERDY) != RESET)
 80009f8:	6a23      	ldr	r3, [r4, #32]
 80009fa:	0798      	lsls	r0, r3, #30
 80009fc:	d5d3      	bpl.n	80009a6 <HAL_RCC_OscConfig+0x1e2>
        if((HAL_GetTick() - tickstart ) > RCC_LSE_TIMEOUT_VALUE)
 80009fe:	f7ff fbed 	bl	80001dc <HAL_GetTick>
 8000a02:	1b80      	subs	r0, r0, r6
 8000a04:	4540      	cmp	r0, r8
 8000a06:	d9f7      	bls.n	80009f8 <HAL_RCC_OscConfig+0x234>
 8000a08:	e71e      	b.n	8000848 <HAL_RCC_OscConfig+0x84>
    __HAL_RCC_LSE_CONFIG(RCC_OscInitStruct->LSEState);
 8000a0a:	2b05      	cmp	r3, #5
 8000a0c:	6a23      	ldr	r3, [r4, #32]
 8000a0e:	d103      	bne.n	8000a18 <HAL_RCC_OscConfig+0x254>
 8000a10:	f043 0304 	orr.w	r3, r3, #4
 8000a14:	6223      	str	r3, [r4, #32]
 8000a16:	e7ba      	b.n	800098e <HAL_RCC_OscConfig+0x1ca>
 8000a18:	f023 0301 	bic.w	r3, r3, #1
 8000a1c:	6223      	str	r3, [r4, #32]
 8000a1e:	6a23      	ldr	r3, [r4, #32]
 8000a20:	f023 0304 	bic.w	r3, r3, #4
 8000a24:	e7b6      	b.n	8000994 <HAL_RCC_OscConfig+0x1d0>
        if((HAL_GetTick() - tickstart ) > RCC_LSE_TIMEOUT_VALUE)
 8000a26:	f7ff fbd9 	bl	80001dc <HAL_GetTick>
 8000a2a:	eba0 0008 	sub.w	r0, r0, r8
 8000a2e:	42b0      	cmp	r0, r6
 8000a30:	d9b6      	bls.n	80009a0 <HAL_RCC_OscConfig+0x1dc>
 8000a32:	e709      	b.n	8000848 <HAL_RCC_OscConfig+0x84>
 8000a34:	40021000 	.word	0x40021000
 8000a38:	42420000 	.word	0x42420000
 8000a3c:	42420480 	.word	0x42420480
 8000a40:	20000008 	.word	0x20000008
 8000a44:	40007000 	.word	0x40007000
    if(__HAL_RCC_GET_SYSCLK_SOURCE() != RCC_SYSCLKSOURCE_STATUS_PLLCLK)
 8000a48:	4c22      	ldr	r4, [pc, #136]	; (8000ad4 <HAL_RCC_OscConfig+0x310>)
 8000a4a:	6863      	ldr	r3, [r4, #4]
 8000a4c:	f003 030c 	and.w	r3, r3, #12
 8000a50:	2b08      	cmp	r3, #8
 8000a52:	f43f aee2 	beq.w	800081a <HAL_RCC_OscConfig+0x56>
 8000a56:	2300      	movs	r3, #0
 8000a58:	4e1f      	ldr	r6, [pc, #124]	; (8000ad8 <HAL_RCC_OscConfig+0x314>)
      if((RCC_OscInitStruct->PLL.PLLState) == RCC_PLL_ON)
 8000a5a:	2a02      	cmp	r2, #2
        __HAL_RCC_PLL_DISABLE();
 8000a5c:	6033      	str	r3, [r6, #0]
      if((RCC_OscInitStruct->PLL.PLLState) == RCC_PLL_ON)
 8000a5e:	d12b      	bne.n	8000ab8 <HAL_RCC_OscConfig+0x2f4>
        tickstart = HAL_GetTick();
 8000a60:	f7ff fbbc 	bl	80001dc <HAL_GetTick>
 8000a64:	4607      	mov	r7, r0
        while(__HAL_RCC_GET_FLAG(RCC_FLAG_PLLRDY)  != RESET)
 8000a66:	6823      	ldr	r3, [r4, #0]
 8000a68:	0199      	lsls	r1, r3, #6
 8000a6a:	d41f      	bmi.n	8000aac <HAL_RCC_OscConfig+0x2e8>
        if(RCC_OscInitStruct->PLL.PLLSource == RCC_PLLSOURCE_HSE)
 8000a6c:	6a2b      	ldr	r3, [r5, #32]
 8000a6e:	f5b3 3f80 	cmp.w	r3, #65536	; 0x10000
 8000a72:	d105      	bne.n	8000a80 <HAL_RCC_OscConfig+0x2bc>
          __HAL_RCC_HSE_PREDIV_CONFIG(RCC_OscInitStruct->HSEPredivValue);
 8000a74:	6862      	ldr	r2, [r4, #4]
 8000a76:	68a9      	ldr	r1, [r5, #8]
 8000a78:	f422 3200 	bic.w	r2, r2, #131072	; 0x20000
 8000a7c:	430a      	orrs	r2, r1
 8000a7e:	6062      	str	r2, [r4, #4]
        __HAL_RCC_PLL_CONFIG(RCC_OscInitStruct->PLL.PLLSource,
 8000a80:	6a69      	ldr	r1, [r5, #36]	; 0x24
 8000a82:	6862      	ldr	r2, [r4, #4]
 8000a84:	430b      	orrs	r3, r1
 8000a86:	f422 1274 	bic.w	r2, r2, #3997696	; 0x3d0000
 8000a8a:	4313      	orrs	r3, r2
 8000a8c:	6063      	str	r3, [r4, #4]
        __HAL_RCC_PLL_ENABLE();
 8000a8e:	2301      	movs	r3, #1
 8000a90:	6033      	str	r3, [r6, #0]
        tickstart = HAL_GetTick();
 8000a92:	f7ff fba3 	bl	80001dc <HAL_GetTick>
 8000a96:	4605      	mov	r5, r0
        while(__HAL_RCC_GET_FLAG(RCC_FLAG_PLLRDY)  == RESET)
 8000a98:	6823      	ldr	r3, [r4, #0]
 8000a9a:	019a      	lsls	r2, r3, #6
 8000a9c:	f53f aea7 	bmi.w	80007ee <HAL_RCC_OscConfig+0x2a>
          if((HAL_GetTick() - tickstart ) > PLL_TIMEOUT_VALUE)
 8000aa0:	f7ff fb9c 	bl	80001dc <HAL_GetTick>
 8000aa4:	1b40      	subs	r0, r0, r5
 8000aa6:	2802      	cmp	r0, #2
 8000aa8:	d9f6      	bls.n	8000a98 <HAL_RCC_OscConfig+0x2d4>
 8000aaa:	e6cd      	b.n	8000848 <HAL_RCC_OscConfig+0x84>
          if((HAL_GetTick() - tickstart ) > PLL_TIMEOUT_VALUE)
 8000aac:	f7ff fb96 	bl	80001dc <HAL_GetTick>
 8000ab0:	1bc0      	subs	r0, r0, r7
 8000ab2:	2802      	cmp	r0, #2
 8000ab4:	d9d7      	bls.n	8000a66 <HAL_RCC_OscConfig+0x2a2>
 8000ab6:	e6c7      	b.n	8000848 <HAL_RCC_OscConfig+0x84>
        tickstart = HAL_GetTick();
 8000ab8:	f7ff fb90 	bl	80001dc <HAL_GetTick>
 8000abc:	4605      	mov	r5, r0
        while(__HAL_RCC_GET_FLAG(RCC_FLAG_PLLRDY)  != RESET)
 8000abe:	6823      	ldr	r3, [r4, #0]
 8000ac0:	019b      	lsls	r3, r3, #6
 8000ac2:	f57f ae94 	bpl.w	80007ee <HAL_RCC_OscConfig+0x2a>
          if((HAL_GetTick() - tickstart ) > PLL_TIMEOUT_VALUE)
 8000ac6:	f7ff fb89 	bl	80001dc <HAL_GetTick>
 8000aca:	1b40      	subs	r0, r0, r5
 8000acc:	2802      	cmp	r0, #2
 8000ace:	d9f6      	bls.n	8000abe <HAL_RCC_OscConfig+0x2fa>
 8000ad0:	e6ba      	b.n	8000848 <HAL_RCC_OscConfig+0x84>
 8000ad2:	bf00      	nop
 8000ad4:	40021000 	.word	0x40021000
 8000ad8:	42420060 	.word	0x42420060

08000adc <HAL_RCC_GetSysClockFreq>:
{
 8000adc:	b530      	push	{r4, r5, lr}
  const uint8_t aPLLMULFactorTable[16] = {2, 3, 4, 5, 6, 7, 8, 9, 10, 11, 12, 13, 14, 15, 16, 16};
 8000ade:	4b19      	ldr	r3, [pc, #100]	; (8000b44 <HAL_RCC_GetSysClockFreq+0x68>)
{
 8000ae0:	b087      	sub	sp, #28
  const uint8_t aPLLMULFactorTable[16] = {2, 3, 4, 5, 6, 7, 8, 9, 10, 11, 12, 13, 14, 15, 16, 16};
 8000ae2:	ac02      	add	r4, sp, #8
 8000ae4:	f103 0510 	add.w	r5, r3, #16
 8000ae8:	4622      	mov	r2, r4
 8000aea:	6818      	ldr	r0, [r3, #0]
 8000aec:	6859      	ldr	r1, [r3, #4]
 8000aee:	3308      	adds	r3, #8
 8000af0:	c203      	stmia	r2!, {r0, r1}
 8000af2:	42ab      	cmp	r3, r5
 8000af4:	4614      	mov	r4, r2
 8000af6:	d1f7      	bne.n	8000ae8 <HAL_RCC_GetSysClockFreq+0xc>
  const uint8_t aPredivFactorTable[2] = {1, 2};
 8000af8:	2301      	movs	r3, #1
 8000afa:	f88d 3004 	strb.w	r3, [sp, #4]
 8000afe:	2302      	movs	r3, #2
  tmpreg = RCC->CFGR;
 8000b00:	4911      	ldr	r1, [pc, #68]	; (8000b48 <HAL_RCC_GetSysClockFreq+0x6c>)
  const uint8_t aPredivFactorTable[2] = {1, 2};
 8000b02:	f88d 3005 	strb.w	r3, [sp, #5]
  tmpreg = RCC->CFGR;
 8000b06:	684b      	ldr	r3, [r1, #4]
  switch (tmpreg & RCC_CFGR_SWS)
 8000b08:	f003 020c 	and.w	r2, r3, #12
 8000b0c:	2a08      	cmp	r2, #8
 8000b0e:	d117      	bne.n	8000b40 <HAL_RCC_GetSysClockFreq+0x64>
      pllmul = aPLLMULFactorTable[(uint32_t)(tmpreg & RCC_CFGR_PLLMULL) >> RCC_CFGR_PLLMULL_Pos];
 8000b10:	f3c3 4283 	ubfx	r2, r3, #18, #4
 8000b14:	a806      	add	r0, sp, #24
 8000b16:	4402      	add	r2, r0
      if ((tmpreg & RCC_CFGR_PLLSRC) != RCC_PLLSOURCE_HSI_DIV2)
 8000b18:	03db      	lsls	r3, r3, #15
      pllmul = aPLLMULFactorTable[(uint32_t)(tmpreg & RCC_CFGR_PLLMULL) >> RCC_CFGR_PLLMULL_Pos];
 8000b1a:	f812 2c10 	ldrb.w	r2, [r2, #-16]
      if ((tmpreg & RCC_CFGR_PLLSRC) != RCC_PLLSOURCE_HSI_DIV2)
 8000b1e:	d50c      	bpl.n	8000b3a <HAL_RCC_GetSysClockFreq+0x5e>
        prediv = aPredivFactorTable[(uint32_t)(RCC->CFGR & RCC_CFGR_PLLXTPRE) >> RCC_CFGR_PLLXTPRE_Pos];
 8000b20:	684b      	ldr	r3, [r1, #4]
        pllclk = (uint32_t)((HSE_VALUE  * pllmul) / prediv);
 8000b22:	480a      	ldr	r0, [pc, #40]	; (8000b4c <HAL_RCC_GetSysClockFreq+0x70>)
        prediv = aPredivFactorTable[(uint32_t)(RCC->CFGR & RCC_CFGR_PLLXTPRE) >> RCC_CFGR_PLLXTPRE_Pos];
 8000b24:	f3c3 4340 	ubfx	r3, r3, #17, #1
        pllclk = (uint32_t)((HSE_VALUE  * pllmul) / prediv);
 8000b28:	4350      	muls	r0, r2
        prediv = aPredivFactorTable[(uint32_t)(RCC->CFGR & RCC_CFGR_PLLXTPRE) >> RCC_CFGR_PLLXTPRE_Pos];
 8000b2a:	aa06      	add	r2, sp, #24
 8000b2c:	4413      	add	r3, r2
 8000b2e:	f813 3c14 	ldrb.w	r3, [r3, #-20]
        pllclk = (uint32_t)((HSE_VALUE  * pllmul) / prediv);
 8000b32:	fbb0 f0f3 	udiv	r0, r0, r3
}
 8000b36:	b007      	add	sp, #28
 8000b38:	bd30      	pop	{r4, r5, pc}
        pllclk = (uint32_t)((HSI_VALUE >> 1) * pllmul);
 8000b3a:	4805      	ldr	r0, [pc, #20]	; (8000b50 <HAL_RCC_GetSysClockFreq+0x74>)
 8000b3c:	4350      	muls	r0, r2
 8000b3e:	e7fa      	b.n	8000b36 <HAL_RCC_GetSysClockFreq+0x5a>
      sysclockfreq = HSE_VALUE;
 8000b40:	4802      	ldr	r0, [pc, #8]	; (8000b4c <HAL_RCC_GetSysClockFreq+0x70>)
  return sysclockfreq;
 8000b42:	e7f8      	b.n	8000b36 <HAL_RCC_GetSysClockFreq+0x5a>
 8000b44:	08003acc 	.word	0x08003acc
 8000b48:	40021000 	.word	0x40021000
 8000b4c:	007a1200 	.word	0x007a1200
 8000b50:	003d0900 	.word	0x003d0900

08000b54 <HAL_RCC_ClockConfig>:
  if(FLatency > (FLASH->ACR & FLASH_ACR_LATENCY))
 8000b54:	4a4d      	ldr	r2, [pc, #308]	; (8000c8c <HAL_RCC_ClockConfig+0x138>)
{
 8000b56:	e92d 41f0 	stmdb	sp!, {r4, r5, r6, r7, r8, lr}
  if(FLatency > (FLASH->ACR & FLASH_ACR_LATENCY))
 8000b5a:	6813      	ldr	r3, [r2, #0]
{
 8000b5c:	4605      	mov	r5, r0
  if(FLatency > (FLASH->ACR & FLASH_ACR_LATENCY))
 8000b5e:	f003 0307 	and.w	r3, r3, #7
 8000b62:	428b      	cmp	r3, r1
{
 8000b64:	460e      	mov	r6, r1
  if(FLatency > (FLASH->ACR & FLASH_ACR_LATENCY))
 8000b66:	d328      	bcc.n	8000bba <HAL_RCC_ClockConfig+0x66>
  if(((RCC_ClkInitStruct->ClockType) & RCC_CLOCKTYPE_HCLK) == RCC_CLOCKTYPE_HCLK)
 8000b68:	682a      	ldr	r2, [r5, #0]
 8000b6a:	0791      	lsls	r1, r2, #30
 8000b6c:	d432      	bmi.n	8000bd4 <HAL_RCC_ClockConfig+0x80>
  if(((RCC_ClkInitStruct->ClockType) & RCC_CLOCKTYPE_SYSCLK) == RCC_CLOCKTYPE_SYSCLK)
 8000b6e:	07d2      	lsls	r2, r2, #31
 8000b70:	d438      	bmi.n	8000be4 <HAL_RCC_ClockConfig+0x90>
  if(FLatency < (FLASH->ACR & FLASH_ACR_LATENCY))
 8000b72:	4a46      	ldr	r2, [pc, #280]	; (8000c8c <HAL_RCC_ClockConfig+0x138>)
 8000b74:	6813      	ldr	r3, [r2, #0]
 8000b76:	f003 0307 	and.w	r3, r3, #7
 8000b7a:	429e      	cmp	r6, r3
 8000b7c:	d373      	bcc.n	8000c66 <HAL_RCC_ClockConfig+0x112>
  if(((RCC_ClkInitStruct->ClockType) & RCC_CLOCKTYPE_PCLK1) == RCC_CLOCKTYPE_PCLK1)
 8000b7e:	682a      	ldr	r2, [r5, #0]
 8000b80:	4c43      	ldr	r4, [pc, #268]	; (8000c90 <HAL_RCC_ClockConfig+0x13c>)
 8000b82:	f012 0f04 	tst.w	r2, #4
 8000b86:	d179      	bne.n	8000c7c <HAL_RCC_ClockConfig+0x128>
  if(((RCC_ClkInitStruct->ClockType) & RCC_CLOCKTYPE_PCLK2) == RCC_CLOCKTYPE_PCLK2)
 8000b88:	0713      	lsls	r3, r2, #28
 8000b8a:	d506      	bpl.n	8000b9a <HAL_RCC_ClockConfig+0x46>
    MODIFY_REG(RCC->CFGR, RCC_CFGR_PPRE2, ((RCC_ClkInitStruct->APB2CLKDivider) << 3));
 8000b8c:	6863      	ldr	r3, [r4, #4]
 8000b8e:	692a      	ldr	r2, [r5, #16]
 8000b90:	f423 5360 	bic.w	r3, r3, #14336	; 0x3800
 8000b94:	ea43 03c2 	orr.w	r3, r3, r2, lsl #3
 8000b98:	6063      	str	r3, [r4, #4]
  SystemCoreClock = HAL_RCC_GetSysClockFreq() >> AHBPrescTable[(RCC->CFGR & RCC_CFGR_HPRE)>> RCC_CFGR_HPRE_Pos];
 8000b9a:	f7ff ff9f 	bl	8000adc <HAL_RCC_GetSysClockFreq>
 8000b9e:	6863      	ldr	r3, [r4, #4]
 8000ba0:	4a3c      	ldr	r2, [pc, #240]	; (8000c94 <HAL_RCC_ClockConfig+0x140>)
 8000ba2:	f3c3 1303 	ubfx	r3, r3, #4, #4
 8000ba6:	5cd3      	ldrb	r3, [r2, r3]
 8000ba8:	40d8      	lsrs	r0, r3
 8000baa:	4b3b      	ldr	r3, [pc, #236]	; (8000c98 <HAL_RCC_ClockConfig+0x144>)
 8000bac:	6018      	str	r0, [r3, #0]
  HAL_InitTick (TICK_INT_PRIORITY);
 8000bae:	2000      	movs	r0, #0
 8000bb0:	f7ff fad4 	bl	800015c <HAL_InitTick>
  return HAL_OK;
 8000bb4:	2000      	movs	r0, #0
}
 8000bb6:	e8bd 81f0 	ldmia.w	sp!, {r4, r5, r6, r7, r8, pc}
    __HAL_FLASH_SET_LATENCY(FLatency);
 8000bba:	6813      	ldr	r3, [r2, #0]
 8000bbc:	f023 0307 	bic.w	r3, r3, #7
 8000bc0:	430b      	orrs	r3, r1
 8000bc2:	6013      	str	r3, [r2, #0]
    if((FLASH->ACR & FLASH_ACR_LATENCY) != FLatency)
 8000bc4:	6813      	ldr	r3, [r2, #0]
 8000bc6:	f003 0307 	and.w	r3, r3, #7
 8000bca:	4299      	cmp	r1, r3
 8000bcc:	d0cc      	beq.n	8000b68 <HAL_RCC_ClockConfig+0x14>
      return HAL_ERROR;
 8000bce:	2001      	movs	r0, #1
 8000bd0:	e8bd 81f0 	ldmia.w	sp!, {r4, r5, r6, r7, r8, pc}
    MODIFY_REG(RCC->CFGR, RCC_CFGR_HPRE, RCC_ClkInitStruct->AHBCLKDivider);
 8000bd4:	492e      	ldr	r1, [pc, #184]	; (8000c90 <HAL_RCC_ClockConfig+0x13c>)
 8000bd6:	68a8      	ldr	r0, [r5, #8]
 8000bd8:	684b      	ldr	r3, [r1, #4]
 8000bda:	f023 03f0 	bic.w	r3, r3, #240	; 0xf0
 8000bde:	4303      	orrs	r3, r0
 8000be0:	604b      	str	r3, [r1, #4]
 8000be2:	e7c4      	b.n	8000b6e <HAL_RCC_ClockConfig+0x1a>
    if(RCC_ClkInitStruct->SYSCLKSource == RCC_SYSCLKSOURCE_HSE)
 8000be4:	686a      	ldr	r2, [r5, #4]
 8000be6:	4c2a      	ldr	r4, [pc, #168]	; (8000c90 <HAL_RCC_ClockConfig+0x13c>)
 8000be8:	2a01      	cmp	r2, #1
      if(__HAL_RCC_GET_FLAG(RCC_FLAG_HSERDY) == RESET)
 8000bea:	6823      	ldr	r3, [r4, #0]
    if(RCC_ClkInitStruct->SYSCLKSource == RCC_SYSCLKSOURCE_HSE)
 8000bec:	d11c      	bne.n	8000c28 <HAL_RCC_ClockConfig+0xd4>
      if(__HAL_RCC_GET_FLAG(RCC_FLAG_HSERDY) == RESET)
 8000bee:	f413 3f00 	tst.w	r3, #131072	; 0x20000
      if(__HAL_RCC_GET_FLAG(RCC_FLAG_HSIRDY) == RESET)
 8000bf2:	d0ec      	beq.n	8000bce <HAL_RCC_ClockConfig+0x7a>
    __HAL_RCC_SYSCLK_CONFIG(RCC_ClkInitStruct->SYSCLKSource);
 8000bf4:	6863      	ldr	r3, [r4, #4]
        if((HAL_GetTick() - tickstart ) > CLOCKSWITCH_TIMEOUT_VALUE)
 8000bf6:	f241 3888 	movw	r8, #5000	; 0x1388
    __HAL_RCC_SYSCLK_CONFIG(RCC_ClkInitStruct->SYSCLKSource);
 8000bfa:	f023 0303 	bic.w	r3, r3, #3
 8000bfe:	4313      	orrs	r3, r2
 8000c00:	6063      	str	r3, [r4, #4]
    tickstart = HAL_GetTick();
 8000c02:	f7ff faeb 	bl	80001dc <HAL_GetTick>
    if(RCC_ClkInitStruct->SYSCLKSource == RCC_SYSCLKSOURCE_HSE)
 8000c06:	686b      	ldr	r3, [r5, #4]
    tickstart = HAL_GetTick();
 8000c08:	4607      	mov	r7, r0
    if(RCC_ClkInitStruct->SYSCLKSource == RCC_SYSCLKSOURCE_HSE)
 8000c0a:	2b01      	cmp	r3, #1
 8000c0c:	d114      	bne.n	8000c38 <HAL_RCC_ClockConfig+0xe4>
      while (__HAL_RCC_GET_SYSCLK_SOURCE() != RCC_SYSCLKSOURCE_STATUS_HSE)
 8000c0e:	6863      	ldr	r3, [r4, #4]
 8000c10:	f003 030c 	and.w	r3, r3, #12
 8000c14:	2b04      	cmp	r3, #4
 8000c16:	d0ac      	beq.n	8000b72 <HAL_RCC_ClockConfig+0x1e>
        if((HAL_GetTick() - tickstart ) > CLOCKSWITCH_TIMEOUT_VALUE)
 8000c18:	f7ff fae0 	bl	80001dc <HAL_GetTick>
 8000c1c:	1bc0      	subs	r0, r0, r7
 8000c1e:	4540      	cmp	r0, r8
 8000c20:	d9f5      	bls.n	8000c0e <HAL_RCC_ClockConfig+0xba>
          return HAL_TIMEOUT;
 8000c22:	2003      	movs	r0, #3
 8000c24:	e8bd 81f0 	ldmia.w	sp!, {r4, r5, r6, r7, r8, pc}
    else if(RCC_ClkInitStruct->SYSCLKSource == RCC_SYSCLKSOURCE_PLLCLK)
 8000c28:	2a02      	cmp	r2, #2
 8000c2a:	d102      	bne.n	8000c32 <HAL_RCC_ClockConfig+0xde>
      if(__HAL_RCC_GET_FLAG(RCC_FLAG_PLLRDY) == RESET)
 8000c2c:	f013 7f00 	tst.w	r3, #33554432	; 0x2000000
 8000c30:	e7df      	b.n	8000bf2 <HAL_RCC_ClockConfig+0x9e>
      if(__HAL_RCC_GET_FLAG(RCC_FLAG_HSIRDY) == RESET)
 8000c32:	f013 0f02 	tst.w	r3, #2
 8000c36:	e7dc      	b.n	8000bf2 <HAL_RCC_ClockConfig+0x9e>
    else if(RCC_ClkInitStruct->SYSCLKSource == RCC_SYSCLKSOURCE_PLLCLK)
 8000c38:	2b02      	cmp	r3, #2
 8000c3a:	d10f      	bne.n	8000c5c <HAL_RCC_ClockConfig+0x108>
      while (__HAL_RCC_GET_SYSCLK_SOURCE() != RCC_SYSCLKSOURCE_STATUS_PLLCLK)
 8000c3c:	6863      	ldr	r3, [r4, #4]
 8000c3e:	f003 030c 	and.w	r3, r3, #12
 8000c42:	2b08      	cmp	r3, #8
 8000c44:	d095      	beq.n	8000b72 <HAL_RCC_ClockConfig+0x1e>
        if((HAL_GetTick() - tickstart ) > CLOCKSWITCH_TIMEOUT_VALUE)
 8000c46:	f7ff fac9 	bl	80001dc <HAL_GetTick>
 8000c4a:	1bc0      	subs	r0, r0, r7
 8000c4c:	4540      	cmp	r0, r8
 8000c4e:	d9f5      	bls.n	8000c3c <HAL_RCC_ClockConfig+0xe8>
 8000c50:	e7e7      	b.n	8000c22 <HAL_RCC_ClockConfig+0xce>
        if((HAL_GetTick() - tickstart ) > CLOCKSWITCH_TIMEOUT_VALUE)
 8000c52:	f7ff fac3 	bl	80001dc <HAL_GetTick>
 8000c56:	1bc0      	subs	r0, r0, r7
 8000c58:	4540      	cmp	r0, r8
 8000c5a:	d8e2      	bhi.n	8000c22 <HAL_RCC_ClockConfig+0xce>
      while (__HAL_RCC_GET_SYSCLK_SOURCE() != RCC_SYSCLKSOURCE_STATUS_HSI)
 8000c5c:	6863      	ldr	r3, [r4, #4]
 8000c5e:	f013 0f0c 	tst.w	r3, #12
 8000c62:	d1f6      	bne.n	8000c52 <HAL_RCC_ClockConfig+0xfe>
 8000c64:	e785      	b.n	8000b72 <HAL_RCC_ClockConfig+0x1e>
    __HAL_FLASH_SET_LATENCY(FLatency);
 8000c66:	6813      	ldr	r3, [r2, #0]
 8000c68:	f023 0307 	bic.w	r3, r3, #7
 8000c6c:	4333      	orrs	r3, r6
 8000c6e:	6013      	str	r3, [r2, #0]
    if((FLASH->ACR & FLASH_ACR_LATENCY) != FLatency)
 8000c70:	6813      	ldr	r3, [r2, #0]
 8000c72:	f003 0307 	and.w	r3, r3, #7
 8000c76:	429e      	cmp	r6, r3
 8000c78:	d1a9      	bne.n	8000bce <HAL_RCC_ClockConfig+0x7a>
 8000c7a:	e780      	b.n	8000b7e <HAL_RCC_ClockConfig+0x2a>
    MODIFY_REG(RCC->CFGR, RCC_CFGR_PPRE1, RCC_ClkInitStruct->APB1CLKDivider);
 8000c7c:	6863      	ldr	r3, [r4, #4]
 8000c7e:	68e9      	ldr	r1, [r5, #12]
 8000c80:	f423 63e0 	bic.w	r3, r3, #1792	; 0x700
 8000c84:	430b      	orrs	r3, r1
 8000c86:	6063      	str	r3, [r4, #4]
 8000c88:	e77e      	b.n	8000b88 <HAL_RCC_ClockConfig+0x34>
 8000c8a:	bf00      	nop
 8000c8c:	40022000 	.word	0x40022000
 8000c90:	40021000 	.word	0x40021000
 8000c94:	08003aec 	.word	0x08003aec
 8000c98:	20000008 	.word	0x20000008

08000c9c <HAL_RCC_GetHCLKFreq>:
}
 8000c9c:	4b01      	ldr	r3, [pc, #4]	; (8000ca4 <HAL_RCC_GetHCLKFreq+0x8>)
 8000c9e:	6818      	ldr	r0, [r3, #0]
 8000ca0:	4770      	bx	lr
 8000ca2:	bf00      	nop
 8000ca4:	20000008 	.word	0x20000008

08000ca8 <HAL_RCC_GetPCLK1Freq>:
  return (HAL_RCC_GetHCLKFreq() >> APBPrescTable[(RCC->CFGR & RCC_CFGR_PPRE1) >> RCC_CFGR_PPRE1_Pos]);
 8000ca8:	4b04      	ldr	r3, [pc, #16]	; (8000cbc <HAL_RCC_GetPCLK1Freq+0x14>)
 8000caa:	4a05      	ldr	r2, [pc, #20]	; (8000cc0 <HAL_RCC_GetPCLK1Freq+0x18>)
 8000cac:	685b      	ldr	r3, [r3, #4]
 8000cae:	f3c3 2302 	ubfx	r3, r3, #8, #3
 8000cb2:	5cd3      	ldrb	r3, [r2, r3]
 8000cb4:	4a03      	ldr	r2, [pc, #12]	; (8000cc4 <HAL_RCC_GetPCLK1Freq+0x1c>)
 8000cb6:	6810      	ldr	r0, [r2, #0]
}    
 8000cb8:	40d8      	lsrs	r0, r3
 8000cba:	4770      	bx	lr
 8000cbc:	40021000 	.word	0x40021000
 8000cc0:	08003afc 	.word	0x08003afc
 8000cc4:	20000008 	.word	0x20000008

08000cc8 <HAL_RCC_GetPCLK2Freq>:
  return (HAL_RCC_GetHCLKFreq()>> APBPrescTable[(RCC->CFGR & RCC_CFGR_PPRE2) >> RCC_CFGR_PPRE2_Pos]);
 8000cc8:	4b04      	ldr	r3, [pc, #16]	; (8000cdc <HAL_RCC_GetPCLK2Freq+0x14>)
 8000cca:	4a05      	ldr	r2, [pc, #20]	; (8000ce0 <HAL_RCC_GetPCLK2Freq+0x18>)
 8000ccc:	685b      	ldr	r3, [r3, #4]
 8000cce:	f3c3 23c2 	ubfx	r3, r3, #11, #3
 8000cd2:	5cd3      	ldrb	r3, [r2, r3]
 8000cd4:	4a03      	ldr	r2, [pc, #12]	; (8000ce4 <HAL_RCC_GetPCLK2Freq+0x1c>)
 8000cd6:	6810      	ldr	r0, [r2, #0]
} 
 8000cd8:	40d8      	lsrs	r0, r3
 8000cda:	4770      	bx	lr
 8000cdc:	40021000 	.word	0x40021000
 8000ce0:	08003afc 	.word	0x08003afc
 8000ce4:	20000008 	.word	0x20000008

08000ce8 <HAL_RCCEx_PeriphCLKConfig>:

  /* Check the parameters */
  assert_param(IS_RCC_PERIPHCLOCK(PeriphClkInit->PeriphClockSelection));
  
  /*------------------------------- RTC/LCD Configuration ------------------------*/ 
  if ((((PeriphClkInit->PeriphClockSelection) & RCC_PERIPHCLK_RTC) == RCC_PERIPHCLK_RTC))
 8000ce8:	6803      	ldr	r3, [r0, #0]
{
 8000cea:	e92d 41f3 	stmdb	sp!, {r0, r1, r4, r5, r6, r7, r8, lr}
  if ((((PeriphClkInit->PeriphClockSelection) & RCC_PERIPHCLK_RTC) == RCC_PERIPHCLK_RTC))
 8000cee:	07d9      	lsls	r1, r3, #31
{
 8000cf0:	4605      	mov	r5, r0
  if ((((PeriphClkInit->PeriphClockSelection) & RCC_PERIPHCLK_RTC) == RCC_PERIPHCLK_RTC))
 8000cf2:	d520      	bpl.n	8000d36 <HAL_RCCEx_PeriphCLKConfig+0x4e>
    FlagStatus       pwrclkchanged = RESET;

    /* As soon as function is called to change RTC clock source, activation of the 
       power domain is done. */
    /* Requires to enable write access to Backup Domain of necessary */
    if(__HAL_RCC_PWR_IS_CLK_DISABLED())
 8000cf4:	4c35      	ldr	r4, [pc, #212]	; (8000dcc <HAL_RCCEx_PeriphCLKConfig+0xe4>)
 8000cf6:	69e3      	ldr	r3, [r4, #28]
 8000cf8:	00da      	lsls	r2, r3, #3
 8000cfa:	d432      	bmi.n	8000d62 <HAL_RCCEx_PeriphCLKConfig+0x7a>
    {
    __HAL_RCC_PWR_CLK_ENABLE();
      pwrclkchanged = SET;
 8000cfc:	2701      	movs	r7, #1
    __HAL_RCC_PWR_CLK_ENABLE();
 8000cfe:	69e3      	ldr	r3, [r4, #28]
 8000d00:	f043 5380 	orr.w	r3, r3, #268435456	; 0x10000000
 8000d04:	61e3      	str	r3, [r4, #28]
 8000d06:	69e3      	ldr	r3, [r4, #28]
 8000d08:	f003 5380 	and.w	r3, r3, #268435456	; 0x10000000
 8000d0c:	9301      	str	r3, [sp, #4]
 8000d0e:	9b01      	ldr	r3, [sp, #4]
    }
    
    if(HAL_IS_BIT_CLR(PWR->CR, PWR_CR_DBP))
 8000d10:	4e2f      	ldr	r6, [pc, #188]	; (8000dd0 <HAL_RCCEx_PeriphCLKConfig+0xe8>)
 8000d12:	6833      	ldr	r3, [r6, #0]
 8000d14:	05db      	lsls	r3, r3, #23
 8000d16:	d526      	bpl.n	8000d66 <HAL_RCCEx_PeriphCLKConfig+0x7e>
        }
      }
    }
      
    /* Reset the Backup domain only if the RTC Clock source selection is modified from reset value */ 
    temp_reg = (RCC->BDCR & RCC_BDCR_RTCSEL);
 8000d18:	6a23      	ldr	r3, [r4, #32]
    if((temp_reg != 0x00000000U) && (temp_reg != (PeriphClkInit->RTCClockSelection & RCC_BDCR_RTCSEL)))
 8000d1a:	f413 7340 	ands.w	r3, r3, #768	; 0x300
 8000d1e:	d136      	bne.n	8000d8e <HAL_RCCEx_PeriphCLKConfig+0xa6>
            return HAL_TIMEOUT;
          }      
        }  
      }
    }
    __HAL_RCC_RTC_CONFIG(PeriphClkInit->RTCClockSelection); 
 8000d20:	6a23      	ldr	r3, [r4, #32]
 8000d22:	686a      	ldr	r2, [r5, #4]
 8000d24:	f423 7340 	bic.w	r3, r3, #768	; 0x300
 8000d28:	4313      	orrs	r3, r2
 8000d2a:	6223      	str	r3, [r4, #32]

    /* Require to disable power clock if necessary */
    if(pwrclkchanged == SET)
 8000d2c:	b11f      	cbz	r7, 8000d36 <HAL_RCCEx_PeriphCLKConfig+0x4e>
    {
      __HAL_RCC_PWR_CLK_DISABLE();
 8000d2e:	69e3      	ldr	r3, [r4, #28]
 8000d30:	f023 5380 	bic.w	r3, r3, #268435456	; 0x10000000
 8000d34:	61e3      	str	r3, [r4, #28]
    }
  }

  /*------------------------------ ADC clock Configuration ------------------*/ 
  if(((PeriphClkInit->PeriphClockSelection) & RCC_PERIPHCLK_ADC) == RCC_PERIPHCLK_ADC)
 8000d36:	6828      	ldr	r0, [r5, #0]
 8000d38:	0783      	lsls	r3, r0, #30
 8000d3a:	d506      	bpl.n	8000d4a <HAL_RCCEx_PeriphCLKConfig+0x62>
  {
    /* Check the parameters */
    assert_param(IS_RCC_ADCPLLCLK_DIV(PeriphClkInit->AdcClockSelection));
    
    /* Configure the ADC clock source */
    __HAL_RCC_ADC_CONFIG(PeriphClkInit->AdcClockSelection);
 8000d3c:	4a23      	ldr	r2, [pc, #140]	; (8000dcc <HAL_RCCEx_PeriphCLKConfig+0xe4>)
 8000d3e:	68a9      	ldr	r1, [r5, #8]
 8000d40:	6853      	ldr	r3, [r2, #4]
 8000d42:	f423 4340 	bic.w	r3, r3, #49152	; 0xc000
 8000d46:	430b      	orrs	r3, r1
 8000d48:	6053      	str	r3, [r2, #4]

#if defined(STM32F102x6) || defined(STM32F102xB) || defined(STM32F103x6)\
 || defined(STM32F103xB) || defined(STM32F103xE) || defined(STM32F103xG)\
 || defined(STM32F105xC) || defined(STM32F107xC)
  /*------------------------------ USB clock Configuration ------------------*/ 
  if(((PeriphClkInit->PeriphClockSelection) & RCC_PERIPHCLK_USB) == RCC_PERIPHCLK_USB)
 8000d4a:	f010 0010 	ands.w	r0, r0, #16
 8000d4e:	d01b      	beq.n	8000d88 <HAL_RCCEx_PeriphCLKConfig+0xa0>
  {
    /* Check the parameters */
    assert_param(IS_RCC_USBPLLCLK_DIV(PeriphClkInit->UsbClockSelection));
    
    /* Configure the USB clock source */
    __HAL_RCC_USB_CONFIG(PeriphClkInit->UsbClockSelection);
 8000d50:	4a1e      	ldr	r2, [pc, #120]	; (8000dcc <HAL_RCCEx_PeriphCLKConfig+0xe4>)
 8000d52:	68e9      	ldr	r1, [r5, #12]
 8000d54:	6853      	ldr	r3, [r2, #4]
  }
#endif /* STM32F102x6 || STM32F102xB || STM32F103x6 || STM32F103xB || STM32F103xE || STM32F103xG || STM32F105xC || STM32F107xC */

  return HAL_OK;
 8000d56:	2000      	movs	r0, #0
    __HAL_RCC_USB_CONFIG(PeriphClkInit->UsbClockSelection);
 8000d58:	f423 0380 	bic.w	r3, r3, #4194304	; 0x400000
 8000d5c:	430b      	orrs	r3, r1
 8000d5e:	6053      	str	r3, [r2, #4]
 8000d60:	e012      	b.n	8000d88 <HAL_RCCEx_PeriphCLKConfig+0xa0>
    FlagStatus       pwrclkchanged = RESET;
 8000d62:	2700      	movs	r7, #0
 8000d64:	e7d4      	b.n	8000d10 <HAL_RCCEx_PeriphCLKConfig+0x28>
      SET_BIT(PWR->CR, PWR_CR_DBP);
 8000d66:	6833      	ldr	r3, [r6, #0]
 8000d68:	f443 7380 	orr.w	r3, r3, #256	; 0x100
 8000d6c:	6033      	str	r3, [r6, #0]
      tickstart = HAL_GetTick();
 8000d6e:	f7ff fa35 	bl	80001dc <HAL_GetTick>
 8000d72:	4680      	mov	r8, r0
      while(HAL_IS_BIT_CLR(PWR->CR, PWR_CR_DBP))
 8000d74:	6833      	ldr	r3, [r6, #0]
 8000d76:	05d8      	lsls	r0, r3, #23
 8000d78:	d4ce      	bmi.n	8000d18 <HAL_RCCEx_PeriphCLKConfig+0x30>
        if((HAL_GetTick() - tickstart) > RCC_DBP_TIMEOUT_VALUE)
 8000d7a:	f7ff fa2f 	bl	80001dc <HAL_GetTick>
 8000d7e:	eba0 0008 	sub.w	r0, r0, r8
 8000d82:	2864      	cmp	r0, #100	; 0x64
 8000d84:	d9f6      	bls.n	8000d74 <HAL_RCCEx_PeriphCLKConfig+0x8c>
          return HAL_TIMEOUT;
 8000d86:	2003      	movs	r0, #3
}
 8000d88:	b002      	add	sp, #8
 8000d8a:	e8bd 81f0 	ldmia.w	sp!, {r4, r5, r6, r7, r8, pc}
    if((temp_reg != 0x00000000U) && (temp_reg != (PeriphClkInit->RTCClockSelection & RCC_BDCR_RTCSEL)))
 8000d8e:	686a      	ldr	r2, [r5, #4]
 8000d90:	f402 7240 	and.w	r2, r2, #768	; 0x300
 8000d94:	4293      	cmp	r3, r2
 8000d96:	d0c3      	beq.n	8000d20 <HAL_RCCEx_PeriphCLKConfig+0x38>
      __HAL_RCC_BACKUPRESET_FORCE();
 8000d98:	2001      	movs	r0, #1
 8000d9a:	4a0e      	ldr	r2, [pc, #56]	; (8000dd4 <HAL_RCCEx_PeriphCLKConfig+0xec>)
      temp_reg = (RCC->BDCR & ~(RCC_BDCR_RTCSEL));
 8000d9c:	6a23      	ldr	r3, [r4, #32]
      __HAL_RCC_BACKUPRESET_FORCE();
 8000d9e:	6010      	str	r0, [r2, #0]
      __HAL_RCC_BACKUPRESET_RELEASE();
 8000da0:	2000      	movs	r0, #0
      temp_reg = (RCC->BDCR & ~(RCC_BDCR_RTCSEL));
 8000da2:	f423 7140 	bic.w	r1, r3, #768	; 0x300
      __HAL_RCC_BACKUPRESET_RELEASE();
 8000da6:	6010      	str	r0, [r2, #0]
      RCC->BDCR = temp_reg;
 8000da8:	6221      	str	r1, [r4, #32]
      if (HAL_IS_BIT_SET(temp_reg, RCC_BDCR_LSEON))
 8000daa:	07d9      	lsls	r1, r3, #31
 8000dac:	d5b8      	bpl.n	8000d20 <HAL_RCCEx_PeriphCLKConfig+0x38>
        tickstart = HAL_GetTick();
 8000dae:	f7ff fa15 	bl	80001dc <HAL_GetTick>
          if((HAL_GetTick() - tickstart) > RCC_LSE_TIMEOUT_VALUE)
 8000db2:	f241 3888 	movw	r8, #5000	; 0x1388
        tickstart = HAL_GetTick();
 8000db6:	4606      	mov	r6, r0
        while(__HAL_RCC_GET_FLAG(RCC_FLAG_LSERDY) == RESET)
 8000db8:	6a23      	ldr	r3, [r4, #32]
 8000dba:	079a      	lsls	r2, r3, #30
 8000dbc:	d4b0      	bmi.n	8000d20 <HAL_RCCEx_PeriphCLKConfig+0x38>
          if((HAL_GetTick() - tickstart) > RCC_LSE_TIMEOUT_VALUE)
 8000dbe:	f7ff fa0d 	bl	80001dc <HAL_GetTick>
 8000dc2:	1b80      	subs	r0, r0, r6
 8000dc4:	4540      	cmp	r0, r8
 8000dc6:	d9f7      	bls.n	8000db8 <HAL_RCCEx_PeriphCLKConfig+0xd0>
 8000dc8:	e7dd      	b.n	8000d86 <HAL_RCCEx_PeriphCLKConfig+0x9e>
 8000dca:	bf00      	nop
 8000dcc:	40021000 	.word	0x40021000
 8000dd0:	40007000 	.word	0x40007000
 8000dd4:	42420440 	.word	0x42420440

08000dd8 <HAL_RCCEx_GetPeriphCLKFreq>:
  *            @arg @ref RCC_PERIPHCLK_USB  USB peripheral clock
  @endif
  * @retval Frequency in Hz (0: means that no available frequency for the peripheral)
  */
uint32_t HAL_RCCEx_GetPeriphCLKFreq(uint32_t PeriphClk)
{
 8000dd8:	b570      	push	{r4, r5, r6, lr}
 8000dda:	4604      	mov	r4, r0
  uint32_t prediv1 = 0U, pllclk = 0U, pllmul = 0U;
  uint32_t pll2mul = 0U, pll3mul = 0U, prediv2 = 0U;
#endif /* STM32F105xC || STM32F107xC */
#if defined(STM32F102x6) || defined(STM32F102xB) || defined(STM32F103x6) || \
    defined(STM32F103xB) || defined(STM32F103xE) || defined(STM32F103xG)
  const uint8_t aPLLMULFactorTable[16] = {2, 3, 4, 5, 6, 7, 8, 9, 10, 11, 12, 13, 14, 15, 16, 16};
 8000ddc:	4b35      	ldr	r3, [pc, #212]	; (8000eb4 <HAL_RCCEx_GetPeriphCLKFreq+0xdc>)
{
 8000dde:	b086      	sub	sp, #24
  const uint8_t aPLLMULFactorTable[16] = {2, 3, 4, 5, 6, 7, 8, 9, 10, 11, 12, 13, 14, 15, 16, 16};
 8000de0:	ad02      	add	r5, sp, #8
 8000de2:	f103 0610 	add.w	r6, r3, #16
 8000de6:	462a      	mov	r2, r5
 8000de8:	6818      	ldr	r0, [r3, #0]
 8000dea:	6859      	ldr	r1, [r3, #4]
 8000dec:	3308      	adds	r3, #8
 8000dee:	c203      	stmia	r2!, {r0, r1}
 8000df0:	42b3      	cmp	r3, r6
 8000df2:	4615      	mov	r5, r2
 8000df4:	d1f7      	bne.n	8000de6 <HAL_RCCEx_GetPeriphCLKFreq+0xe>
  const uint8_t aPredivFactorTable[2] = {1, 2};
 8000df6:	2301      	movs	r3, #1
 8000df8:	f88d 3004 	strb.w	r3, [sp, #4]
 8000dfc:	2302      	movs	r3, #2
  uint32_t temp_reg = 0U, frequency = 0U;

  /* Check the parameters */
  assert_param(IS_RCC_PERIPHCLOCK(PeriphClk));
  
  switch (PeriphClk)
 8000dfe:	429c      	cmp	r4, r3
  const uint8_t aPredivFactorTable[2] = {1, 2};
 8000e00:	f88d 3005 	strb.w	r3, [sp, #5]
  switch (PeriphClk)
 8000e04:	d047      	beq.n	8000e96 <HAL_RCCEx_GetPeriphCLKFreq+0xbe>
 8000e06:	2c10      	cmp	r4, #16
 8000e08:	d017      	beq.n	8000e3a <HAL_RCCEx_GetPeriphCLKFreq+0x62>
 8000e0a:	2c01      	cmp	r4, #1
 8000e0c:	d14f      	bne.n	8000eae <HAL_RCCEx_GetPeriphCLKFreq+0xd6>
    {
      /* Get RCC BDCR configuration ------------------------------------------------------*/
      temp_reg = RCC->BDCR;

      /* Check if LSE is ready if RTC clock selection is LSE */
      if (((temp_reg & RCC_BDCR_RTCSEL) == RCC_RTCCLKSOURCE_LSE) && (HAL_IS_BIT_SET(temp_reg, RCC_BDCR_LSERDY)))
 8000e0e:	f240 3102 	movw	r1, #770	; 0x302
      temp_reg = RCC->BDCR;
 8000e12:	4a29      	ldr	r2, [pc, #164]	; (8000eb8 <HAL_RCCEx_GetPeriphCLKFreq+0xe0>)
 8000e14:	6a13      	ldr	r3, [r2, #32]
      if (((temp_reg & RCC_BDCR_RTCSEL) == RCC_RTCCLKSOURCE_LSE) && (HAL_IS_BIT_SET(temp_reg, RCC_BDCR_LSERDY)))
 8000e16:	4019      	ands	r1, r3
 8000e18:	f5b1 7f81 	cmp.w	r1, #258	; 0x102
 8000e1c:	d044      	beq.n	8000ea8 <HAL_RCCEx_GetPeriphCLKFreq+0xd0>
      {
        frequency = LSE_VALUE;
      }
      /* Check if LSI is ready if RTC clock selection is LSI */
      else if (((temp_reg & RCC_BDCR_RTCSEL) == RCC_RTCCLKSOURCE_LSI) && (HAL_IS_BIT_SET(RCC->CSR, RCC_CSR_LSIRDY)))
 8000e1e:	f403 7340 	and.w	r3, r3, #768	; 0x300
 8000e22:	f5b3 7f00 	cmp.w	r3, #512	; 0x200
 8000e26:	d12d      	bne.n	8000e84 <HAL_RCCEx_GetPeriphCLKFreq+0xac>
      {
        frequency = LSI_VALUE;
 8000e28:	f649 4040 	movw	r0, #40000	; 0x9c40
      else if (((temp_reg & RCC_BDCR_RTCSEL) == RCC_RTCCLKSOURCE_LSI) && (HAL_IS_BIT_SET(RCC->CSR, RCC_CSR_LSIRDY)))
 8000e2c:	6a53      	ldr	r3, [r2, #36]	; 0x24
        frequency = LSI_VALUE;
 8000e2e:	f013 0f02 	tst.w	r3, #2
      }
      else if (((temp_reg & RCC_BDCR_RTCSEL) == RCC_RTCCLKSOURCE_HSE_DIV128) && (HAL_IS_BIT_SET(RCC->CR, RCC_CR_HSERDY)))
      {
        frequency = HSE_VALUE / 128U;
 8000e32:	bf08      	it	eq
 8000e34:	2000      	moveq	r0, #0
    {
      break;
    }
  }
  return(frequency);
}
 8000e36:	b006      	add	sp, #24
 8000e38:	bd70      	pop	{r4, r5, r6, pc}
      temp_reg = RCC->CFGR;
 8000e3a:	4b1f      	ldr	r3, [pc, #124]	; (8000eb8 <HAL_RCCEx_GetPeriphCLKFreq+0xe0>)
 8000e3c:	6859      	ldr	r1, [r3, #4]
      if (HAL_IS_BIT_SET(RCC->CR,RCC_CR_PLLON))
 8000e3e:	6818      	ldr	r0, [r3, #0]
 8000e40:	f010 7080 	ands.w	r0, r0, #16777216	; 0x1000000
 8000e44:	d0f7      	beq.n	8000e36 <HAL_RCCEx_GetPeriphCLKFreq+0x5e>
        pllmul = aPLLMULFactorTable[(uint32_t)(temp_reg & RCC_CFGR_PLLMULL) >> RCC_CFGR_PLLMULL_Pos];
 8000e46:	f3c1 4283 	ubfx	r2, r1, #18, #4
 8000e4a:	a806      	add	r0, sp, #24
 8000e4c:	4402      	add	r2, r0
 8000e4e:	f812 0c10 	ldrb.w	r0, [r2, #-16]
        if ((temp_reg & RCC_CFGR_PLLSRC) != RCC_PLLSOURCE_HSI_DIV2)
 8000e52:	03ca      	lsls	r2, r1, #15
          prediv1 = aPredivFactorTable[(uint32_t)(RCC->CFGR & RCC_CFGR_PLLXTPRE) >> RCC_CFGR_PLLXTPRE_Pos];
 8000e54:	bf41      	itttt	mi
 8000e56:	685a      	ldrmi	r2, [r3, #4]
 8000e58:	a906      	addmi	r1, sp, #24
 8000e5a:	f3c2 4240 	ubfxmi	r2, r2, #17, #1
 8000e5e:	1852      	addmi	r2, r2, r1
 8000e60:	bf44      	itt	mi
 8000e62:	f812 1c14 	ldrbmi.w	r1, [r2, #-20]
            pllclk = (uint32_t)((HSE_VALUE / prediv1) * pllmul);
 8000e66:	4a15      	ldrmi	r2, [pc, #84]	; (8000ebc <HAL_RCCEx_GetPeriphCLKFreq+0xe4>)
        if (__HAL_RCC_GET_USB_SOURCE() == RCC_USBCLKSOURCE_PLL)
 8000e68:	685b      	ldr	r3, [r3, #4]
            pllclk = (uint32_t)((HSE_VALUE / prediv1) * pllmul);
 8000e6a:	bf4c      	ite	mi
 8000e6c:	fbb2 f2f1 	udivmi	r2, r2, r1
          pllclk = (uint32_t)((HSI_VALUE >> 1) * pllmul);
 8000e70:	4a13      	ldrpl	r2, [pc, #76]	; (8000ec0 <HAL_RCCEx_GetPeriphCLKFreq+0xe8>)
        if (__HAL_RCC_GET_USB_SOURCE() == RCC_USBCLKSOURCE_PLL)
 8000e72:	025b      	lsls	r3, r3, #9
          pllclk = (uint32_t)((HSI_VALUE >> 1) * pllmul);
 8000e74:	fb02 f000 	mul.w	r0, r2, r0
        if (__HAL_RCC_GET_USB_SOURCE() == RCC_USBCLKSOURCE_PLL)
 8000e78:	d4dd      	bmi.n	8000e36 <HAL_RCCEx_GetPeriphCLKFreq+0x5e>
          frequency = (pllclk * 2) / 3;
 8000e7a:	2303      	movs	r3, #3
 8000e7c:	0040      	lsls	r0, r0, #1
      frequency = HAL_RCC_GetPCLK2Freq() / (((__HAL_RCC_GET_ADC_SOURCE() >> RCC_CFGR_ADCPRE_Pos) + 1) * 2);
 8000e7e:	fbb0 f0f3 	udiv	r0, r0, r3
      break;
 8000e82:	e7d8      	b.n	8000e36 <HAL_RCCEx_GetPeriphCLKFreq+0x5e>
      else if (((temp_reg & RCC_BDCR_RTCSEL) == RCC_RTCCLKSOURCE_HSE_DIV128) && (HAL_IS_BIT_SET(RCC->CR, RCC_CR_HSERDY)))
 8000e84:	f5b3 7f40 	cmp.w	r3, #768	; 0x300
 8000e88:	d111      	bne.n	8000eae <HAL_RCCEx_GetPeriphCLKFreq+0xd6>
 8000e8a:	6813      	ldr	r3, [r2, #0]
        frequency = HSE_VALUE / 128U;
 8000e8c:	f24f 4024 	movw	r0, #62500	; 0xf424
 8000e90:	f413 3f00 	tst.w	r3, #131072	; 0x20000
 8000e94:	e7cd      	b.n	8000e32 <HAL_RCCEx_GetPeriphCLKFreq+0x5a>
      frequency = HAL_RCC_GetPCLK2Freq() / (((__HAL_RCC_GET_ADC_SOURCE() >> RCC_CFGR_ADCPRE_Pos) + 1) * 2);
 8000e96:	f7ff ff17 	bl	8000cc8 <HAL_RCC_GetPCLK2Freq>
 8000e9a:	4b07      	ldr	r3, [pc, #28]	; (8000eb8 <HAL_RCCEx_GetPeriphCLKFreq+0xe0>)
 8000e9c:	685b      	ldr	r3, [r3, #4]
 8000e9e:	f3c3 3381 	ubfx	r3, r3, #14, #2
 8000ea2:	3301      	adds	r3, #1
 8000ea4:	005b      	lsls	r3, r3, #1
 8000ea6:	e7ea      	b.n	8000e7e <HAL_RCCEx_GetPeriphCLKFreq+0xa6>
        frequency = LSE_VALUE;
 8000ea8:	f44f 4000 	mov.w	r0, #32768	; 0x8000
 8000eac:	e7c3      	b.n	8000e36 <HAL_RCCEx_GetPeriphCLKFreq+0x5e>
        frequency = 0U;
 8000eae:	2000      	movs	r0, #0
 8000eb0:	e7c1      	b.n	8000e36 <HAL_RCCEx_GetPeriphCLKFreq+0x5e>
 8000eb2:	bf00      	nop
 8000eb4:	08003adc 	.word	0x08003adc
 8000eb8:	40021000 	.word	0x40021000
 8000ebc:	007a1200 	.word	0x007a1200
 8000ec0:	003d0900 	.word	0x003d0900

08000ec4 <RTC_ReadTimeCounter>:
static uint32_t RTC_ReadTimeCounter(RTC_HandleTypeDef* hrtc)
{
  uint16_t high1 = 0U, high2 = 0U, low = 0U;
  uint32_t timecounter = 0U;

  high1 = READ_REG(hrtc->Instance->CNTH & RTC_CNTH_RTC_CNT);
 8000ec4:	6803      	ldr	r3, [r0, #0]
{
 8000ec6:	b530      	push	{r4, r5, lr}
  high1 = READ_REG(hrtc->Instance->CNTH & RTC_CNTH_RTC_CNT);
 8000ec8:	699a      	ldr	r2, [r3, #24]
  low   = READ_REG(hrtc->Instance->CNTL & RTC_CNTL_RTC_CNT);
 8000eca:	69d8      	ldr	r0, [r3, #28]
  high2 = READ_REG(hrtc->Instance->CNTH & RTC_CNTH_RTC_CNT);
 8000ecc:	6999      	ldr	r1, [r3, #24]

  if (high1 != high2)
 8000ece:	b295      	uxth	r5, r2
 8000ed0:	b28c      	uxth	r4, r1
 8000ed2:	42a5      	cmp	r5, r4
  { /* In this case the counter roll over during reading of CNTL and CNTH registers, 
       read again CNTL register then return the counter value */
    timecounter = (((uint32_t) high2 << 16U) | READ_REG(hrtc->Instance->CNTL & RTC_CNTL_RTC_CNT));
 8000ed4:	bf1d      	ittte	ne
 8000ed6:	69d8      	ldrne	r0, [r3, #28]
 8000ed8:	b280      	uxthne	r0, r0
 8000eda:	ea40 4001 	orrne.w	r0, r0, r1, lsl #16
  }
  else
  { /* No counter roll over during reading of CNTL and CNTH registers, counter 
       value is equal to first value of CNTL and CNTH */
    timecounter = (((uint32_t) high1 << 16U) | low);
 8000ede:	b280      	uxtheq	r0, r0
 8000ee0:	bf08      	it	eq
 8000ee2:	ea40 4002 	orreq.w	r0, r0, r2, lsl #16
  }

  return timecounter;
}
 8000ee6:	bd30      	pop	{r4, r5, pc}

08000ee8 <RTC_ReadAlarmCounter>:
  */
static uint32_t RTC_ReadAlarmCounter(RTC_HandleTypeDef* hrtc)
{
  uint16_t high1 = 0U, low = 0U;

  high1 = READ_REG(hrtc->Instance->ALRH & RTC_CNTH_RTC_CNT);
 8000ee8:	6803      	ldr	r3, [r0, #0]
 8000eea:	6a18      	ldr	r0, [r3, #32]
  low   = READ_REG(hrtc->Instance->ALRL & RTC_CNTL_RTC_CNT);
 8000eec:	6a5b      	ldr	r3, [r3, #36]	; 0x24

  return (((uint32_t) high1 << 16U) | low);
 8000eee:	b29b      	uxth	r3, r3
}
 8000ef0:	ea43 4000 	orr.w	r0, r3, r0, lsl #16
 8000ef4:	4770      	bx	lr

08000ef6 <RTC_ByteToBcd2>:
  * @param  Value: Byte to be converted
  * @retval Converted byte
  */
static uint8_t RTC_ByteToBcd2(uint8_t Value)
{
  uint32_t bcdhigh = 0U;
 8000ef6:	2300      	movs	r3, #0
  
  while(Value >= 10U)
 8000ef8:	2809      	cmp	r0, #9
 8000efa:	d803      	bhi.n	8000f04 <RTC_ByteToBcd2+0xe>
  {
    bcdhigh++;
    Value -= 10U;
  }
  
  return  ((uint8_t)(bcdhigh << 4U) | Value);
 8000efc:	ea40 1003 	orr.w	r0, r0, r3, lsl #4
}
 8000f00:	b2c0      	uxtb	r0, r0
 8000f02:	4770      	bx	lr
    Value -= 10U;
 8000f04:	380a      	subs	r0, #10
    bcdhigh++;
 8000f06:	3301      	adds	r3, #1
    Value -= 10U;
 8000f08:	b2c0      	uxtb	r0, r0
 8000f0a:	e7f5      	b.n	8000ef8 <RTC_ByteToBcd2+0x2>

08000f0c <RTC_Bcd2ToByte>:
  */
static uint8_t RTC_Bcd2ToByte(uint8_t Value)
{
  uint32_t tmp = 0U;
  tmp = ((uint8_t)(Value & (uint8_t)0xF0) >> (uint8_t)0x4) * 10U;
  return (tmp + (Value & (uint8_t)0x0F));
 8000f0c:	220a      	movs	r2, #10
  tmp = ((uint8_t)(Value & (uint8_t)0xF0) >> (uint8_t)0x4) * 10U;
 8000f0e:	0903      	lsrs	r3, r0, #4
  return (tmp + (Value & (uint8_t)0x0F));
 8000f10:	f000 000f 	and.w	r0, r0, #15
 8000f14:	fb02 0003 	mla	r0, r2, r3, r0
}
 8000f18:	b2c0      	uxtb	r0, r0
 8000f1a:	4770      	bx	lr

08000f1c <RTC_WeekDayNum>:
{
  uint32_t year = 0U, weekday = 0U;

  year = 2000U + nYear;
  
  if(nMonth < 3U)
 8000f1c:	2902      	cmp	r1, #2
{
 8000f1e:	b570      	push	{r4, r5, r6, lr}
 8000f20:	f04f 0317 	mov.w	r3, #23
  year = 2000U + nYear;
 8000f24:	f500 65fa 	add.w	r5, r0, #2000	; 0x7d0
 8000f28:	f04f 0609 	mov.w	r6, #9
  if(nMonth < 3U)
 8000f2c:	d81a      	bhi.n	8000f64 <RTC_WeekDayNum+0x48>
  {
    /*D = { [(23 x month)/9] + day + 4 + year + [(year-1)/4] - [(year-1)/100] + [(year-1)/400] } mod 7*/
    weekday = (((23U * nMonth)/9U) + nDay + 4U + year + ((year-1U)/4U) - ((year-1U)/100U) + ((year-1U)/400U)) % 7U;
 8000f2e:	434b      	muls	r3, r1
 8000f30:	f200 74cf 	addw	r4, r0, #1999	; 0x7cf
 8000f34:	fbb3 f0f6 	udiv	r0, r3, r6
 8000f38:	f44f 73c8 	mov.w	r3, #400	; 0x190
 8000f3c:	fbb4 f3f3 	udiv	r3, r4, r3
 8000f40:	3204      	adds	r2, #4
 8000f42:	442a      	add	r2, r5
 8000f44:	4410      	add	r0, r2
 8000f46:	eb00 0094 	add.w	r0, r0, r4, lsr #2
 8000f4a:	4418      	add	r0, r3
 8000f4c:	2364      	movs	r3, #100	; 0x64
 8000f4e:	fbb4 f4f3 	udiv	r4, r4, r3
 8000f52:	1b00      	subs	r0, r0, r4
  }
  else
  {
    /*D = { [(23 x month)/9] + day + 4 + year + [year/4] - [year/100] + [year/400] - 2 } mod 7*/
    weekday = (((23U * nMonth)/9U) + nDay + 4U + year + (year/4U) - (year/100U) + (year/400U) - 2U ) % 7U; 
 8000f54:	2307      	movs	r3, #7
 8000f56:	fbb0 f3f3 	udiv	r3, r0, r3
 8000f5a:	ebc3 03c3 	rsb	r3, r3, r3, lsl #3
 8000f5e:	1ac0      	subs	r0, r0, r3
  }

  return (uint8_t)weekday;
}
 8000f60:	b2c0      	uxtb	r0, r0
 8000f62:	bd70      	pop	{r4, r5, r6, pc}
    weekday = (((23U * nMonth)/9U) + nDay + 4U + year + (year/4U) - (year/100U) + (year/400U) - 2U ) % 7U; 
 8000f64:	fb03 f001 	mul.w	r0, r3, r1
 8000f68:	fbb0 f0f6 	udiv	r0, r0, r6
 8000f6c:	3202      	adds	r2, #2
 8000f6e:	442a      	add	r2, r5
 8000f70:	f44f 73c8 	mov.w	r3, #400	; 0x190
 8000f74:	4410      	add	r0, r2
 8000f76:	2264      	movs	r2, #100	; 0x64
 8000f78:	fbb5 f3f3 	udiv	r3, r5, r3
 8000f7c:	fbb5 f2f2 	udiv	r2, r5, r2
 8000f80:	eb00 0095 	add.w	r0, r0, r5, lsr #2
 8000f84:	4418      	add	r0, r3
 8000f86:	1a80      	subs	r0, r0, r2
 8000f88:	e7e4      	b.n	8000f54 <RTC_WeekDayNum+0x38>

08000f8a <RTC_EnterInitMode>:
{
 8000f8a:	b538      	push	{r3, r4, r5, lr}
 8000f8c:	4604      	mov	r4, r0
  tickstart = HAL_GetTick();
 8000f8e:	f7ff f925 	bl	80001dc <HAL_GetTick>
 8000f92:	4605      	mov	r5, r0
  while((hrtc->Instance->CRL & RTC_CRL_RTOFF) == (uint32_t)RESET)
 8000f94:	6823      	ldr	r3, [r4, #0]
 8000f96:	685a      	ldr	r2, [r3, #4]
 8000f98:	0692      	lsls	r2, r2, #26
 8000f9a:	d505      	bpl.n	8000fa8 <RTC_EnterInitMode+0x1e>
  __HAL_RTC_WRITEPROTECTION_DISABLE(hrtc);
 8000f9c:	685a      	ldr	r2, [r3, #4]
  return HAL_OK;  
 8000f9e:	2000      	movs	r0, #0
  __HAL_RTC_WRITEPROTECTION_DISABLE(hrtc);
 8000fa0:	f042 0210 	orr.w	r2, r2, #16
 8000fa4:	605a      	str	r2, [r3, #4]
  return HAL_OK;  
 8000fa6:	bd38      	pop	{r3, r4, r5, pc}
    if((HAL_GetTick() - tickstart) >  RTC_TIMEOUT_VALUE)
 8000fa8:	f7ff f918 	bl	80001dc <HAL_GetTick>
 8000fac:	1b40      	subs	r0, r0, r5
 8000fae:	f5b0 7f7a 	cmp.w	r0, #1000	; 0x3e8
 8000fb2:	d9ef      	bls.n	8000f94 <RTC_EnterInitMode+0xa>
      return HAL_TIMEOUT;
 8000fb4:	2003      	movs	r0, #3
}
 8000fb6:	bd38      	pop	{r3, r4, r5, pc}

08000fb8 <RTC_ExitInitMode>:
  __HAL_RTC_WRITEPROTECTION_ENABLE(hrtc);
 8000fb8:	6802      	ldr	r2, [r0, #0]
{
 8000fba:	b538      	push	{r3, r4, r5, lr}
  __HAL_RTC_WRITEPROTECTION_ENABLE(hrtc);
 8000fbc:	6853      	ldr	r3, [r2, #4]
{
 8000fbe:	4604      	mov	r4, r0
  __HAL_RTC_WRITEPROTECTION_ENABLE(hrtc);
 8000fc0:	f023 0310 	bic.w	r3, r3, #16
 8000fc4:	6053      	str	r3, [r2, #4]
  tickstart = HAL_GetTick();
 8000fc6:	f7ff f909 	bl	80001dc <HAL_GetTick>
 8000fca:	4605      	mov	r5, r0
  while((hrtc->Instance->CRL & RTC_CRL_RTOFF) == (uint32_t)RESET)
 8000fcc:	6823      	ldr	r3, [r4, #0]
 8000fce:	685b      	ldr	r3, [r3, #4]
 8000fd0:	069b      	lsls	r3, r3, #26
 8000fd2:	d501      	bpl.n	8000fd8 <RTC_ExitInitMode+0x20>
  return HAL_OK;  
 8000fd4:	2000      	movs	r0, #0
 8000fd6:	bd38      	pop	{r3, r4, r5, pc}
    if((HAL_GetTick() - tickstart) >  RTC_TIMEOUT_VALUE)
 8000fd8:	f7ff f900 	bl	80001dc <HAL_GetTick>
 8000fdc:	1b40      	subs	r0, r0, r5
 8000fde:	f5b0 7f7a 	cmp.w	r0, #1000	; 0x3e8
 8000fe2:	d9f3      	bls.n	8000fcc <RTC_ExitInitMode+0x14>
      return HAL_TIMEOUT;
 8000fe4:	2003      	movs	r0, #3
}
 8000fe6:	bd38      	pop	{r3, r4, r5, pc}

08000fe8 <RTC_WriteTimeCounter>:
{
 8000fe8:	b538      	push	{r3, r4, r5, lr}
 8000fea:	4605      	mov	r5, r0
 8000fec:	460c      	mov	r4, r1
  if(RTC_EnterInitMode(hrtc) != HAL_OK)
 8000fee:	f7ff ffcc 	bl	8000f8a <RTC_EnterInitMode>
 8000ff2:	b958      	cbnz	r0, 800100c <RTC_WriteTimeCounter+0x24>
    WRITE_REG(hrtc->Instance->CNTH, (TimeCounter >> 16U));
 8000ff4:	682b      	ldr	r3, [r5, #0]
 8000ff6:	0c22      	lsrs	r2, r4, #16
    WRITE_REG(hrtc->Instance->CNTL, (TimeCounter & RTC_CNTL_RTC_CNT));
 8000ff8:	b2a4      	uxth	r4, r4
    WRITE_REG(hrtc->Instance->CNTH, (TimeCounter >> 16U));
 8000ffa:	619a      	str	r2, [r3, #24]
    if(RTC_ExitInitMode(hrtc) != HAL_OK)
 8000ffc:	4628      	mov	r0, r5
    WRITE_REG(hrtc->Instance->CNTL, (TimeCounter & RTC_CNTL_RTC_CNT));
 8000ffe:	61dc      	str	r4, [r3, #28]
    if(RTC_ExitInitMode(hrtc) != HAL_OK)
 8001000:	f7ff ffda 	bl	8000fb8 <RTC_ExitInitMode>
    status = HAL_ERROR;
 8001004:	3000      	adds	r0, #0
 8001006:	bf18      	it	ne
 8001008:	2001      	movne	r0, #1
 800100a:	bd38      	pop	{r3, r4, r5, pc}
 800100c:	2001      	movs	r0, #1
}
 800100e:	bd38      	pop	{r3, r4, r5, pc}

08001010 <RTC_WriteAlarmCounter>:
{
 8001010:	b538      	push	{r3, r4, r5, lr}
 8001012:	4605      	mov	r5, r0
 8001014:	460c      	mov	r4, r1
  if(RTC_EnterInitMode(hrtc) != HAL_OK)
 8001016:	f7ff ffb8 	bl	8000f8a <RTC_EnterInitMode>
 800101a:	b958      	cbnz	r0, 8001034 <RTC_WriteAlarmCounter+0x24>
    WRITE_REG(hrtc->Instance->ALRH, (AlarmCounter >> 16U));
 800101c:	682b      	ldr	r3, [r5, #0]
 800101e:	0c22      	lsrs	r2, r4, #16
    WRITE_REG(hrtc->Instance->ALRL, (AlarmCounter & RTC_ALRL_RTC_ALR));
 8001020:	b2a4      	uxth	r4, r4
    WRITE_REG(hrtc->Instance->ALRH, (AlarmCounter >> 16U));
 8001022:	621a      	str	r2, [r3, #32]
    if(RTC_ExitInitMode(hrtc) != HAL_OK)
 8001024:	4628      	mov	r0, r5
    WRITE_REG(hrtc->Instance->ALRL, (AlarmCounter & RTC_ALRL_RTC_ALR));
 8001026:	625c      	str	r4, [r3, #36]	; 0x24
    if(RTC_ExitInitMode(hrtc) != HAL_OK)
 8001028:	f7ff ffc6 	bl	8000fb8 <RTC_ExitInitMode>
    status = HAL_ERROR;
 800102c:	3000      	adds	r0, #0
 800102e:	bf18      	it	ne
 8001030:	2001      	movne	r0, #1
 8001032:	bd38      	pop	{r3, r4, r5, pc}
 8001034:	2001      	movs	r0, #1
}
 8001036:	bd38      	pop	{r3, r4, r5, pc}

08001038 <HAL_RTC_SetTime>:
{
 8001038:	b570      	push	{r4, r5, r6, lr}
  if((hrtc == NULL) || (sTime == NULL))
 800103a:	4604      	mov	r4, r0
 800103c:	b1e0      	cbz	r0, 8001078 <HAL_RTC_SetTime+0x40>
 800103e:	b1d9      	cbz	r1, 8001078 <HAL_RTC_SetTime+0x40>
  __HAL_LOCK(hrtc);
 8001040:	7c03      	ldrb	r3, [r0, #16]
 8001042:	2602      	movs	r6, #2
 8001044:	2b01      	cmp	r3, #1
 8001046:	d046      	beq.n	80010d6 <HAL_RTC_SetTime+0x9e>
 8001048:	2301      	movs	r3, #1
  hrtc->State = HAL_RTC_STATE_BUSY;
 800104a:	7446      	strb	r6, [r0, #17]
  __HAL_LOCK(hrtc);
 800104c:	7403      	strb	r3, [r0, #16]
 800104e:	7808      	ldrb	r0, [r1, #0]
 8001050:	784e      	ldrb	r6, [r1, #1]
 8001052:	7889      	ldrb	r1, [r1, #2]
  if(Format == RTC_FORMAT_BIN)
 8001054:	b992      	cbnz	r2, 800107c <HAL_RTC_SetTime+0x44>
                        ((uint32_t)sTime->Minutes * 60U) + \
 8001056:	253c      	movs	r5, #60	; 0x3c
    counter_time = (uint32_t)(((uint32_t)sTime->Hours * 3600U) + \
 8001058:	f44f 6361 	mov.w	r3, #3600	; 0xe10
                        ((uint32_t)sTime->Minutes * 60U) + \
 800105c:	4375      	muls	r5, r6
    counter_time = (uint32_t)(((uint32_t)sTime->Hours * 3600U) + \
 800105e:	fb03 5000 	mla	r0, r3, r0, r5
 8001062:	1845      	adds	r5, r0, r1
  if (RTC_WriteTimeCounter(hrtc, counter_time) != HAL_OK)
 8001064:	4629      	mov	r1, r5
 8001066:	4620      	mov	r0, r4
 8001068:	f7ff ffbe 	bl	8000fe8 <RTC_WriteTimeCounter>
 800106c:	4606      	mov	r6, r0
 800106e:	b1b0      	cbz	r0, 800109e <HAL_RTC_SetTime+0x66>
    hrtc->State = HAL_RTC_STATE_ERROR;
 8001070:	2304      	movs	r3, #4
 8001072:	7463      	strb	r3, [r4, #17]
    __HAL_UNLOCK(hrtc);
 8001074:	2300      	movs	r3, #0
 8001076:	7423      	strb	r3, [r4, #16]
     return HAL_ERROR;
 8001078:	2601      	movs	r6, #1
 800107a:	e02c      	b.n	80010d6 <HAL_RTC_SetTime+0x9e>
    counter_time = (((uint32_t)(RTC_Bcd2ToByte(sTime->Hours)) * 3600U) + \
 800107c:	f7ff ff46 	bl	8000f0c <RTC_Bcd2ToByte>
 8001080:	4605      	mov	r5, r0
              ((uint32_t)(RTC_Bcd2ToByte(sTime->Minutes)) * 60U) + \
 8001082:	4630      	mov	r0, r6
 8001084:	f7ff ff42 	bl	8000f0c <RTC_Bcd2ToByte>
 8001088:	233c      	movs	r3, #60	; 0x3c
 800108a:	4358      	muls	r0, r3
    counter_time = (((uint32_t)(RTC_Bcd2ToByte(sTime->Hours)) * 3600U) + \
 800108c:	f44f 6361 	mov.w	r3, #3600	; 0xe10
 8001090:	fb03 0505 	mla	r5, r3, r5, r0
              ((uint32_t)(RTC_Bcd2ToByte(sTime->Seconds))));   
 8001094:	4608      	mov	r0, r1
 8001096:	f7ff ff39 	bl	8000f0c <RTC_Bcd2ToByte>
    counter_time = (((uint32_t)(RTC_Bcd2ToByte(sTime->Hours)) * 3600U) + \
 800109a:	4405      	add	r5, r0
 800109c:	e7e2      	b.n	8001064 <HAL_RTC_SetTime+0x2c>
    CLEAR_BIT(hrtc->Instance->CRL, (RTC_FLAG_SEC | RTC_FLAG_OW));
 800109e:	6822      	ldr	r2, [r4, #0]
    counter_alarm = RTC_ReadAlarmCounter(hrtc);
 80010a0:	4620      	mov	r0, r4
    CLEAR_BIT(hrtc->Instance->CRL, (RTC_FLAG_SEC | RTC_FLAG_OW));
 80010a2:	6853      	ldr	r3, [r2, #4]
 80010a4:	f023 0305 	bic.w	r3, r3, #5
 80010a8:	6053      	str	r3, [r2, #4]
    counter_alarm = RTC_ReadAlarmCounter(hrtc);
 80010aa:	f7ff ff1d 	bl	8000ee8 <RTC_ReadAlarmCounter>
    if (counter_alarm != RTC_ALARM_RESETVALUE)
 80010ae:	1c43      	adds	r3, r0, #1
 80010b0:	d00d      	beq.n	80010ce <HAL_RTC_SetTime+0x96>
      if(counter_alarm < counter_time)
 80010b2:	4285      	cmp	r5, r0
 80010b4:	d90b      	bls.n	80010ce <HAL_RTC_SetTime+0x96>
        if (RTC_WriteAlarmCounter(hrtc, counter_alarm) != HAL_OK)
 80010b6:	f500 31a8 	add.w	r1, r0, #86016	; 0x15000
 80010ba:	f501 71c0 	add.w	r1, r1, #384	; 0x180
 80010be:	4620      	mov	r0, r4
 80010c0:	f7ff ffa6 	bl	8001010 <RTC_WriteAlarmCounter>
 80010c4:	b118      	cbz	r0, 80010ce <HAL_RTC_SetTime+0x96>
          hrtc->State = HAL_RTC_STATE_ERROR;
 80010c6:	2304      	movs	r3, #4
          __HAL_UNLOCK(hrtc);
 80010c8:	7426      	strb	r6, [r4, #16]
          hrtc->State = HAL_RTC_STATE_ERROR;
 80010ca:	7463      	strb	r3, [r4, #17]
 80010cc:	e7d4      	b.n	8001078 <HAL_RTC_SetTime+0x40>
    hrtc->State = HAL_RTC_STATE_READY;
 80010ce:	2301      	movs	r3, #1
 80010d0:	7463      	strb	r3, [r4, #17]
   __HAL_UNLOCK(hrtc); 
 80010d2:	2300      	movs	r3, #0
 80010d4:	7423      	strb	r3, [r4, #16]
}
 80010d6:	4630      	mov	r0, r6
 80010d8:	bd70      	pop	{r4, r5, r6, pc}
	...

080010dc <HAL_RTC_GetTime>:
{
 80010dc:	e92d 43f8 	stmdb	sp!, {r3, r4, r5, r6, r7, r8, r9, lr}
 80010e0:	460d      	mov	r5, r1
 80010e2:	4690      	mov	r8, r2
  if((hrtc == NULL) || (sTime == NULL))
 80010e4:	4604      	mov	r4, r0
 80010e6:	b910      	cbnz	r0, 80010ee <HAL_RTC_GetTime+0x12>
     return HAL_ERROR;
 80010e8:	2001      	movs	r0, #1
 80010ea:	e8bd 83f8 	ldmia.w	sp!, {r3, r4, r5, r6, r7, r8, r9, pc}
  if((hrtc == NULL) || (sTime == NULL))
 80010ee:	2900      	cmp	r1, #0
 80010f0:	d0fa      	beq.n	80010e8 <HAL_RTC_GetTime+0xc>
  if (__HAL_RTC_OVERFLOW_GET_FLAG(hrtc, RTC_FLAG_OW))
 80010f2:	6803      	ldr	r3, [r0, #0]
 80010f4:	685b      	ldr	r3, [r3, #4]
 80010f6:	075e      	lsls	r6, r3, #29
 80010f8:	d4f6      	bmi.n	80010e8 <HAL_RTC_GetTime+0xc>
  counter_time = RTC_ReadTimeCounter(hrtc);
 80010fa:	f7ff fee3 	bl	8000ec4 <RTC_ReadTimeCounter>
  hours = counter_time / 3600U;
 80010fe:	f44f 6261 	mov.w	r2, #3600	; 0xe10
 8001102:	fbb0 f3f2 	udiv	r3, r0, r2
  counter_time = RTC_ReadTimeCounter(hrtc);
 8001106:	4607      	mov	r7, r0
  sTime->Minutes  = (uint8_t)((counter_time % 3600U) / 60U);
 8001108:	fb02 0213 	mls	r2, r2, r3, r0
 800110c:	203c      	movs	r0, #60	; 0x3c
 800110e:	fbb2 f1f0 	udiv	r1, r2, r0
  sTime->Seconds  = (uint8_t)((counter_time % 3600U) % 60U);
 8001112:	fb00 2211 	mls	r2, r0, r1, r2
  if (hours >= 24U)
 8001116:	2b17      	cmp	r3, #23
  sTime->Minutes  = (uint8_t)((counter_time % 3600U) / 60U);
 8001118:	7069      	strb	r1, [r5, #1]
  sTime->Seconds  = (uint8_t)((counter_time % 3600U) % 60U);
 800111a:	70aa      	strb	r2, [r5, #2]
  if (hours >= 24U)
 800111c:	f240 8085 	bls.w	800122a <HAL_RTC_GetTime+0x14e>
    sTime->Hours = (hours % 24U);    
 8001120:	2118      	movs	r1, #24
 8001122:	fbb3 f2f1 	udiv	r2, r3, r1
 8001126:	fb01 3312 	mls	r3, r1, r2, r3
    counter_alarm = RTC_ReadAlarmCounter(hrtc);
 800112a:	4620      	mov	r0, r4
    sTime->Hours = (hours % 24U);    
 800112c:	702b      	strb	r3, [r5, #0]
    counter_alarm = RTC_ReadAlarmCounter(hrtc);
 800112e:	f7ff fedb 	bl	8000ee8 <RTC_ReadAlarmCounter>
    if ((counter_alarm != RTC_ALARM_RESETVALUE) && (counter_alarm > counter_time))
 8001132:	1c41      	adds	r1, r0, #1
    counter_alarm = RTC_ReadAlarmCounter(hrtc);
 8001134:	4606      	mov	r6, r0
    if ((counter_alarm != RTC_ALARM_RESETVALUE) && (counter_alarm > counter_time))
 8001136:	d004      	beq.n	8001142 <HAL_RTC_GetTime+0x66>
 8001138:	4287      	cmp	r7, r0
      counter_alarm = RTC_ALARM_RESETVALUE;
 800113a:	bf2c      	ite	cs
 800113c:	f04f 36ff 	movcs.w	r6, #4294967295
      counter_alarm -= counter_time;
 8001140:	1bc6      	subcc	r6, r0, r7
 8001142:	4b40      	ldr	r3, [pc, #256]	; (8001244 <HAL_RTC_GetTime+0x168>)
    if (RTC_WriteTimeCounter(hrtc, counter_time) != HAL_OK)
 8001144:	4620      	mov	r0, r4
 8001146:	fbb7 f9f3 	udiv	r9, r7, r3
 800114a:	fb03 7919 	mls	r9, r3, r9, r7
 800114e:	4649      	mov	r1, r9
 8001150:	f7ff ff4a 	bl	8000fe8 <RTC_WriteTimeCounter>
 8001154:	2800      	cmp	r0, #0
 8001156:	d1c7      	bne.n	80010e8 <HAL_RTC_GetTime+0xc>
    if (counter_alarm != RTC_ALARM_RESETVALUE)
 8001158:	1c72      	adds	r2, r6, #1
 800115a:	d02f      	beq.n	80011bc <HAL_RTC_GetTime+0xe0>
      if (RTC_WriteAlarmCounter(hrtc, counter_alarm) != HAL_OK)
 800115c:	eb09 0106 	add.w	r1, r9, r6
      if (RTC_WriteAlarmCounter(hrtc, counter_alarm) != HAL_OK)
 8001160:	4620      	mov	r0, r4
 8001162:	f7ff ff55 	bl	8001010 <RTC_WriteAlarmCounter>
 8001166:	2800      	cmp	r0, #0
 8001168:	d1be      	bne.n	80010e8 <HAL_RTC_GetTime+0xc>
    days_elapsed = (hours / 24U);
 800116a:	4b36      	ldr	r3, [pc, #216]	; (8001244 <HAL_RTC_GetTime+0x168>)
  for (loop = 0U; loop < DayElapsed; loop++)
 800116c:	2600      	movs	r6, #0
    days_elapsed = (hours / 24U);
 800116e:	fbb7 f7f3 	udiv	r7, r7, r3
  if((nYear % 100U) != 0U) 
 8001172:	f04f 0e64 	mov.w	lr, #100	; 0x64
  if((nYear % 400U) == 0U)
 8001176:	f44f 7cc8 	mov.w	ip, #400	; 0x190
    if((month == 1U) || (month == 3U) || (month == 5U) || (month == 7U) || \
 800117a:	f240 29d5 	movw	r9, #725	; 0x2d5
  year = hrtc->DateToUpdate.Year;
 800117e:	7be0      	ldrb	r0, [r4, #15]
  month = hrtc->DateToUpdate.Month;
 8001180:	7b61      	ldrb	r1, [r4, #13]
  day = hrtc->DateToUpdate.Date;
 8001182:	7ba2      	ldrb	r2, [r4, #14]
  for (loop = 0U; loop < DayElapsed; loop++)
 8001184:	42b7      	cmp	r7, r6
 8001186:	d11b      	bne.n	80011c0 <HAL_RTC_GetTime+0xe4>
  hrtc->DateToUpdate.Month = month;
 8001188:	b2c9      	uxtb	r1, r1
  hrtc->DateToUpdate.Date = day;
 800118a:	b2d2      	uxtb	r2, r2
  hrtc->DateToUpdate.Year = year;
 800118c:	73e0      	strb	r0, [r4, #15]
  hrtc->DateToUpdate.Month = month;
 800118e:	7361      	strb	r1, [r4, #13]
  hrtc->DateToUpdate.Date = day;
 8001190:	73a2      	strb	r2, [r4, #14]
  hrtc->DateToUpdate.WeekDay = RTC_WeekDayNum(year, month, day);
 8001192:	f7ff fec3 	bl	8000f1c <RTC_WeekDayNum>
 8001196:	7320      	strb	r0, [r4, #12]
  if(Format != RTC_FORMAT_BIN)
 8001198:	f1b8 0f00 	cmp.w	r8, #0
 800119c:	d00b      	beq.n	80011b6 <HAL_RTC_GetTime+0xda>
    sTime->Hours    = (uint8_t)RTC_ByteToBcd2(sTime->Hours);
 800119e:	7828      	ldrb	r0, [r5, #0]
 80011a0:	f7ff fea9 	bl	8000ef6 <RTC_ByteToBcd2>
 80011a4:	7028      	strb	r0, [r5, #0]
    sTime->Minutes  = (uint8_t)RTC_ByteToBcd2(sTime->Minutes);
 80011a6:	7868      	ldrb	r0, [r5, #1]
 80011a8:	f7ff fea5 	bl	8000ef6 <RTC_ByteToBcd2>
 80011ac:	7068      	strb	r0, [r5, #1]
    sTime->Seconds  = (uint8_t)RTC_ByteToBcd2(sTime->Seconds);  
 80011ae:	78a8      	ldrb	r0, [r5, #2]
 80011b0:	f7ff fea1 	bl	8000ef6 <RTC_ByteToBcd2>
 80011b4:	70a8      	strb	r0, [r5, #2]
  return HAL_OK;
 80011b6:	2000      	movs	r0, #0
 80011b8:	e8bd 83f8 	ldmia.w	sp!, {r3, r4, r5, r6, r7, r8, r9, pc}
      if (RTC_WriteAlarmCounter(hrtc, counter_alarm) != HAL_OK)
 80011bc:	4631      	mov	r1, r6
 80011be:	e7cf      	b.n	8001160 <HAL_RTC_GetTime+0x84>
    if((month == 1U) || (month == 3U) || (month == 5U) || (month == 7U) || \
 80011c0:	1e4b      	subs	r3, r1, #1
 80011c2:	2b09      	cmp	r3, #9
 80011c4:	d835      	bhi.n	8001232 <HAL_RTC_GetTime+0x156>
 80011c6:	fa29 f303 	lsr.w	r3, r9, r3
 80011ca:	07db      	lsls	r3, r3, #31
 80011cc:	d42f      	bmi.n	800122e <HAL_RTC_GetTime+0x152>
    else if((month == 4U) || (month == 6U) || (month == 9U) || (month == 11U))
 80011ce:	f021 0302 	bic.w	r3, r1, #2
 80011d2:	2b04      	cmp	r3, #4
 80011d4:	d001      	beq.n	80011da <HAL_RTC_GetTime+0xfe>
 80011d6:	2b09      	cmp	r3, #9
 80011d8:	d104      	bne.n	80011e4 <HAL_RTC_GetTime+0x108>
      if(day < 30U)
 80011da:	2a1d      	cmp	r2, #29
      if(day < 31U)
 80011dc:	d906      	bls.n	80011ec <HAL_RTC_GetTime+0x110>
        month++;
 80011de:	3101      	adds	r1, #1
        day = 1U;
 80011e0:	2201      	movs	r2, #1
 80011e2:	e02d      	b.n	8001240 <HAL_RTC_GetTime+0x164>
    else if(month == 2U)
 80011e4:	2902      	cmp	r1, #2
 80011e6:	d12b      	bne.n	8001240 <HAL_RTC_GetTime+0x164>
      if(day < 28U)
 80011e8:	2a1b      	cmp	r2, #27
 80011ea:	d801      	bhi.n	80011f0 <HAL_RTC_GetTime+0x114>
        day++;
 80011ec:	3201      	adds	r2, #1
 80011ee:	e027      	b.n	8001240 <HAL_RTC_GetTime+0x164>
      else if(day == 28U)
 80011f0:	2a1c      	cmp	r2, #28
 80011f2:	d113      	bne.n	800121c <HAL_RTC_GetTime+0x140>
        if(RTC_IsLeapYear(year))
 80011f4:	b282      	uxth	r2, r0
  if((nYear % 4U) != 0U) 
 80011f6:	0793      	lsls	r3, r2, #30
 80011f8:	d112      	bne.n	8001220 <HAL_RTC_GetTime+0x144>
  if((nYear % 100U) != 0U) 
 80011fa:	fbb2 f3fe 	udiv	r3, r2, lr
 80011fe:	fb0e 2313 	mls	r3, lr, r3, r2
 8001202:	b29b      	uxth	r3, r3
 8001204:	b97b      	cbnz	r3, 8001226 <HAL_RTC_GetTime+0x14a>
  if((nYear % 400U) == 0U)
 8001206:	fbb2 f3fc 	udiv	r3, r2, ip
 800120a:	fb0c 2313 	mls	r3, ip, r3, r2
 800120e:	b29b      	uxth	r3, r3
          day++;
 8001210:	2b00      	cmp	r3, #0
 8001212:	bf16      	itet	ne
 8001214:	2201      	movne	r2, #1
 8001216:	221d      	moveq	r2, #29
 8001218:	2103      	movne	r1, #3
 800121a:	e011      	b.n	8001240 <HAL_RTC_GetTime+0x164>
      else if(day == 29U)
 800121c:	2a1d      	cmp	r2, #29
 800121e:	d10f      	bne.n	8001240 <HAL_RTC_GetTime+0x164>
          day = 1U;
 8001220:	2201      	movs	r2, #1
          month++;
 8001222:	2103      	movs	r1, #3
 8001224:	e00c      	b.n	8001240 <HAL_RTC_GetTime+0x164>
          day++;
 8001226:	221d      	movs	r2, #29
 8001228:	e00a      	b.n	8001240 <HAL_RTC_GetTime+0x164>
    sTime->Hours = hours;    
 800122a:	702b      	strb	r3, [r5, #0]
 800122c:	e7b4      	b.n	8001198 <HAL_RTC_GetTime+0xbc>
      if(day < 31U)
 800122e:	2a1e      	cmp	r2, #30
 8001230:	e7d4      	b.n	80011dc <HAL_RTC_GetTime+0x100>
       (month == 8U) || (month == 10U) || (month == 12U))
 8001232:	290c      	cmp	r1, #12
 8001234:	d1cb      	bne.n	80011ce <HAL_RTC_GetTime+0xf2>
      if(day < 31U)
 8001236:	2a1e      	cmp	r2, #30
 8001238:	d9d8      	bls.n	80011ec <HAL_RTC_GetTime+0x110>
          day = 1U;
 800123a:	2201      	movs	r2, #1
          month = 1U;
 800123c:	4611      	mov	r1, r2
          year++;
 800123e:	3001      	adds	r0, #1
  for (loop = 0U; loop < DayElapsed; loop++)
 8001240:	3601      	adds	r6, #1
 8001242:	e79f      	b.n	8001184 <HAL_RTC_GetTime+0xa8>
 8001244:	00015180 	.word	0x00015180

08001248 <HAL_RTC_SetDate>:
{
 8001248:	b570      	push	{r4, r5, r6, lr}
 800124a:	460d      	mov	r5, r1
  if((hrtc == NULL) || (sDate == NULL))
 800124c:	4604      	mov	r4, r0
 800124e:	b358      	cbz	r0, 80012a8 <HAL_RTC_SetDate+0x60>
 8001250:	b351      	cbz	r1, 80012a8 <HAL_RTC_SetDate+0x60>
 __HAL_LOCK(hrtc);
 8001252:	7c03      	ldrb	r3, [r0, #16]
 8001254:	2002      	movs	r0, #2
 8001256:	2b01      	cmp	r3, #1
 8001258:	d027      	beq.n	80012aa <HAL_RTC_SetDate+0x62>
 800125a:	2301      	movs	r3, #1
  hrtc->State = HAL_RTC_STATE_BUSY; 
 800125c:	7460      	strb	r0, [r4, #17]
 __HAL_LOCK(hrtc);
 800125e:	7423      	strb	r3, [r4, #16]
 8001260:	78c8      	ldrb	r0, [r1, #3]
  if(Format == RTC_FORMAT_BIN)
 8001262:	bb1a      	cbnz	r2, 80012ac <HAL_RTC_SetDate+0x64>
    hrtc->DateToUpdate.Year  = sDate->Year;
 8001264:	73e0      	strb	r0, [r4, #15]
    hrtc->DateToUpdate.Month = sDate->Month;
 8001266:	784b      	ldrb	r3, [r1, #1]
 8001268:	7363      	strb	r3, [r4, #13]
    hrtc->DateToUpdate.Date  = sDate->Date;
 800126a:	788b      	ldrb	r3, [r1, #2]
 800126c:	73a3      	strb	r3, [r4, #14]
  hrtc->DateToUpdate.WeekDay = RTC_WeekDayNum(hrtc->DateToUpdate.Year, hrtc->DateToUpdate.Month, hrtc->DateToUpdate.Date);
 800126e:	7ba2      	ldrb	r2, [r4, #14]
 8001270:	7b61      	ldrb	r1, [r4, #13]
 8001272:	7be0      	ldrb	r0, [r4, #15]
 8001274:	f7ff fe52 	bl	8000f1c <RTC_WeekDayNum>
 8001278:	7320      	strb	r0, [r4, #12]
  sDate->WeekDay = hrtc->DateToUpdate.WeekDay;
 800127a:	7028      	strb	r0, [r5, #0]
  counter_time = RTC_ReadTimeCounter(hrtc);
 800127c:	4620      	mov	r0, r4
 800127e:	f7ff fe21 	bl	8000ec4 <RTC_ReadTimeCounter>
  if (hours > 24U)
 8001282:	4b1c      	ldr	r3, [pc, #112]	; (80012f4 <HAL_RTC_SetDate+0xac>)
 8001284:	4298      	cmp	r0, r3
 8001286:	d930      	bls.n	80012ea <HAL_RTC_SetDate+0xa2>
 8001288:	f6a3 630f 	subw	r3, r3, #3599	; 0xe0f
 800128c:	fbb0 f5f3 	udiv	r5, r0, r3
 8001290:	fb03 0515 	mls	r5, r3, r5, r0
    if (RTC_WriteTimeCounter(hrtc, counter_time) != HAL_OK)
 8001294:	4620      	mov	r0, r4
 8001296:	4629      	mov	r1, r5
 8001298:	f7ff fea6 	bl	8000fe8 <RTC_WriteTimeCounter>
 800129c:	4606      	mov	r6, r0
 800129e:	b188      	cbz	r0, 80012c4 <HAL_RTC_SetDate+0x7c>
      hrtc->State = HAL_RTC_STATE_ERROR;
 80012a0:	2304      	movs	r3, #4
 80012a2:	7463      	strb	r3, [r4, #17]
      __HAL_UNLOCK(hrtc);
 80012a4:	2300      	movs	r3, #0
 80012a6:	7423      	strb	r3, [r4, #16]
     return HAL_ERROR;
 80012a8:	2001      	movs	r0, #1
}
 80012aa:	bd70      	pop	{r4, r5, r6, pc}
    hrtc->DateToUpdate.Year  = RTC_Bcd2ToByte(sDate->Year);
 80012ac:	f7ff fe2e 	bl	8000f0c <RTC_Bcd2ToByte>
 80012b0:	73e0      	strb	r0, [r4, #15]
    hrtc->DateToUpdate.Month = RTC_Bcd2ToByte(sDate->Month);
 80012b2:	7848      	ldrb	r0, [r1, #1]
 80012b4:	f7ff fe2a 	bl	8000f0c <RTC_Bcd2ToByte>
 80012b8:	7360      	strb	r0, [r4, #13]
    hrtc->DateToUpdate.Date  = RTC_Bcd2ToByte(sDate->Date);
 80012ba:	7888      	ldrb	r0, [r1, #2]
 80012bc:	f7ff fe26 	bl	8000f0c <RTC_Bcd2ToByte>
 80012c0:	73a0      	strb	r0, [r4, #14]
 80012c2:	e7d4      	b.n	800126e <HAL_RTC_SetDate+0x26>
    counter_alarm = RTC_ReadAlarmCounter(hrtc);
 80012c4:	4620      	mov	r0, r4
 80012c6:	f7ff fe0f 	bl	8000ee8 <RTC_ReadAlarmCounter>
    if (counter_alarm != RTC_ALARM_RESETVALUE)
 80012ca:	1c43      	adds	r3, r0, #1
 80012cc:	d00d      	beq.n	80012ea <HAL_RTC_SetDate+0xa2>
      if(counter_alarm < counter_time)
 80012ce:	4285      	cmp	r5, r0
 80012d0:	d90b      	bls.n	80012ea <HAL_RTC_SetDate+0xa2>
        if (RTC_WriteAlarmCounter(hrtc, counter_alarm) != HAL_OK)
 80012d2:	f500 31a8 	add.w	r1, r0, #86016	; 0x15000
 80012d6:	f501 71c0 	add.w	r1, r1, #384	; 0x180
 80012da:	4620      	mov	r0, r4
 80012dc:	f7ff fe98 	bl	8001010 <RTC_WriteAlarmCounter>
 80012e0:	b118      	cbz	r0, 80012ea <HAL_RTC_SetDate+0xa2>
          hrtc->State = HAL_RTC_STATE_ERROR;
 80012e2:	2304      	movs	r3, #4
          __HAL_UNLOCK(hrtc);
 80012e4:	7426      	strb	r6, [r4, #16]
          hrtc->State = HAL_RTC_STATE_ERROR;
 80012e6:	7463      	strb	r3, [r4, #17]
 80012e8:	e7de      	b.n	80012a8 <HAL_RTC_SetDate+0x60>
  hrtc->State = HAL_RTC_STATE_READY ;
 80012ea:	2301      	movs	r3, #1
  __HAL_UNLOCK(hrtc);
 80012ec:	2000      	movs	r0, #0
  hrtc->State = HAL_RTC_STATE_READY ;
 80012ee:	7463      	strb	r3, [r4, #17]
  __HAL_UNLOCK(hrtc);
 80012f0:	7420      	strb	r0, [r4, #16]
  return HAL_OK;    
 80012f2:	bd70      	pop	{r4, r5, r6, pc}
 80012f4:	00015f8f 	.word	0x00015f8f

080012f8 <HAL_RTC_SetAlarm_IT>:
{
 80012f8:	e92d 47f3 	stmdb	sp!, {r0, r1, r4, r5, r6, r7, r8, r9, sl, lr}
 80012fc:	4692      	mov	sl, r2
  RTC_TimeTypeDef stime = {0U};
 80012fe:	2200      	movs	r2, #0
{
 8001300:	4688      	mov	r8, r1
  RTC_TimeTypeDef stime = {0U};
 8001302:	f8ad 2004 	strh.w	r2, [sp, #4]
 8001306:	f88d 2006 	strb.w	r2, [sp, #6]
  if((hrtc == NULL) || (sAlarm == NULL))
 800130a:	4604      	mov	r4, r0
 800130c:	b918      	cbnz	r0, 8001316 <HAL_RTC_SetAlarm_IT+0x1e>
    return HAL_ERROR;
 800130e:	2001      	movs	r0, #1
}
 8001310:	b002      	add	sp, #8
 8001312:	e8bd 87f0 	ldmia.w	sp!, {r4, r5, r6, r7, r8, r9, sl, pc}
  if((hrtc == NULL) || (sAlarm == NULL))
 8001316:	2900      	cmp	r1, #0
 8001318:	d0f9      	beq.n	800130e <HAL_RTC_SetAlarm_IT+0x16>
  __HAL_LOCK(hrtc);
 800131a:	7c03      	ldrb	r3, [r0, #16]
 800131c:	2b01      	cmp	r3, #1
 800131e:	f04f 0302 	mov.w	r3, #2
 8001322:	d054      	beq.n	80013ce <HAL_RTC_SetAlarm_IT+0xd6>
 8001324:	2101      	movs	r1, #1
  hrtc->State = HAL_RTC_STATE_BUSY;
 8001326:	7443      	strb	r3, [r0, #17]
  __HAL_LOCK(hrtc);
 8001328:	7401      	strb	r1, [r0, #16]
  if (HAL_RTC_GetTime(hrtc, &stime, RTC_FORMAT_BIN) != HAL_OK)
 800132a:	a901      	add	r1, sp, #4
 800132c:	f7ff fed6 	bl	80010dc <HAL_RTC_GetTime>
 8001330:	2800      	cmp	r0, #0
 8001332:	d1ec      	bne.n	800130e <HAL_RTC_SetAlarm_IT+0x16>
                      ((uint32_t)stime.Minutes * 60U) + \
 8001334:	263c      	movs	r6, #60	; 0x3c
  counter_time = (uint32_t)(((uint32_t)stime.Hours * 3600U) + \
 8001336:	f44f 6961 	mov.w	r9, #3600	; 0xe10
                      ((uint32_t)stime.Minutes * 60U) + \
 800133a:	f89d 3005 	ldrb.w	r3, [sp, #5]
  counter_time = (uint32_t)(((uint32_t)stime.Hours * 3600U) + \
 800133e:	f89d 5004 	ldrb.w	r5, [sp, #4]
                      ((uint32_t)stime.Minutes * 60U) + \
 8001342:	4373      	muls	r3, r6
  counter_time = (uint32_t)(((uint32_t)stime.Hours * 3600U) + \
 8001344:	fb09 3505 	mla	r5, r9, r5, r3
                      ((uint32_t)stime.Seconds));  
 8001348:	f89d 3006 	ldrb.w	r3, [sp, #6]
 800134c:	f898 0000 	ldrb.w	r0, [r8]
 8001350:	f898 7001 	ldrb.w	r7, [r8, #1]
  counter_time = (uint32_t)(((uint32_t)stime.Hours * 3600U) + \
 8001354:	441d      	add	r5, r3
 8001356:	f898 8002 	ldrb.w	r8, [r8, #2]
  if(Format == RTC_FORMAT_BIN)
 800135a:	f1ba 0f00 	cmp.w	sl, #0
 800135e:	d113      	bne.n	8001388 <HAL_RTC_SetAlarm_IT+0x90>
      ((uint32_t)sAlarm->AlarmTime.Minutes * 60U) + \
 8001360:	437e      	muls	r6, r7
    counter_alarm = (uint32_t)(((uint32_t)sAlarm->AlarmTime.Hours * 3600U) + \
 8001362:	fb09 6000 	mla	r0, r9, r0, r6
 8001366:	eb00 0108 	add.w	r1, r0, r8
  if (counter_alarm < counter_time)
 800136a:	42a9      	cmp	r1, r5
    counter_alarm += (uint32_t)(24U * 3600U);
 800136c:	bf3c      	itt	cc
 800136e:	f501 31a8 	addcc.w	r1, r1, #86016	; 0x15000
 8001372:	f501 71c0 	addcc.w	r1, r1, #384	; 0x180
  if (RTC_WriteAlarmCounter(hrtc, counter_alarm) != HAL_OK)
 8001376:	4620      	mov	r0, r4
 8001378:	f7ff fe4a 	bl	8001010 <RTC_WriteAlarmCounter>
 800137c:	b190      	cbz	r0, 80013a4 <HAL_RTC_SetAlarm_IT+0xac>
    hrtc->State = HAL_RTC_STATE_ERROR;
 800137e:	2304      	movs	r3, #4
 8001380:	7463      	strb	r3, [r4, #17]
    __HAL_UNLOCK(hrtc);
 8001382:	2300      	movs	r3, #0
 8001384:	7423      	strb	r3, [r4, #16]
 8001386:	e7c2      	b.n	800130e <HAL_RTC_SetAlarm_IT+0x16>
    counter_alarm = (((uint32_t)(RTC_Bcd2ToByte(sAlarm->AlarmTime.Hours)) * 3600U) + \
 8001388:	f7ff fdc0 	bl	8000f0c <RTC_Bcd2ToByte>
 800138c:	4601      	mov	r1, r0
                     ((uint32_t)(RTC_Bcd2ToByte(sAlarm->AlarmTime.Minutes)) * 60U) + \
 800138e:	4638      	mov	r0, r7
 8001390:	f7ff fdbc 	bl	8000f0c <RTC_Bcd2ToByte>
 8001394:	4370      	muls	r0, r6
    counter_alarm = (((uint32_t)(RTC_Bcd2ToByte(sAlarm->AlarmTime.Hours)) * 3600U) + \
 8001396:	fb09 0101 	mla	r1, r9, r1, r0
                     ((uint32_t)RTC_Bcd2ToByte(sAlarm->AlarmTime.Seconds)));   
 800139a:	4640      	mov	r0, r8
 800139c:	f7ff fdb6 	bl	8000f0c <RTC_Bcd2ToByte>
    counter_alarm = (((uint32_t)(RTC_Bcd2ToByte(sAlarm->AlarmTime.Hours)) * 3600U) + \
 80013a0:	4401      	add	r1, r0
 80013a2:	e7e2      	b.n	800136a <HAL_RTC_SetAlarm_IT+0x72>
    __HAL_RTC_ALARM_CLEAR_FLAG(hrtc, RTC_FLAG_ALRAF);
 80013a4:	f06f 0202 	mvn.w	r2, #2
 80013a8:	6823      	ldr	r3, [r4, #0]
 80013aa:	605a      	str	r2, [r3, #4]
    __HAL_RTC_ALARM_ENABLE_IT(hrtc,RTC_IT_ALRA);
 80013ac:	681a      	ldr	r2, [r3, #0]
 80013ae:	f042 0202 	orr.w	r2, r2, #2
 80013b2:	601a      	str	r2, [r3, #0]
    __HAL_RTC_ALARM_EXTI_ENABLE_IT();
 80013b4:	4b07      	ldr	r3, [pc, #28]	; (80013d4 <HAL_RTC_SetAlarm_IT+0xdc>)
 80013b6:	681a      	ldr	r2, [r3, #0]
 80013b8:	f442 3200 	orr.w	r2, r2, #131072	; 0x20000
 80013bc:	601a      	str	r2, [r3, #0]
    __HAL_RTC_ALARM_EXTI_ENABLE_RISING_EDGE();
 80013be:	689a      	ldr	r2, [r3, #8]
 80013c0:	f442 3200 	orr.w	r2, r2, #131072	; 0x20000
 80013c4:	609a      	str	r2, [r3, #8]
    hrtc->State = HAL_RTC_STATE_READY;
 80013c6:	2301      	movs	r3, #1
   __HAL_UNLOCK(hrtc); 
 80013c8:	7420      	strb	r0, [r4, #16]
    hrtc->State = HAL_RTC_STATE_READY;
 80013ca:	7463      	strb	r3, [r4, #17]
   return HAL_OK;
 80013cc:	e7a0      	b.n	8001310 <HAL_RTC_SetAlarm_IT+0x18>
  __HAL_LOCK(hrtc);
 80013ce:	4618      	mov	r0, r3
 80013d0:	e79e      	b.n	8001310 <HAL_RTC_SetAlarm_IT+0x18>
 80013d2:	bf00      	nop
 80013d4:	40010400 	.word	0x40010400

080013d8 <HAL_RTC_AlarmAEventCallback>:
{
 80013d8:	4770      	bx	lr
	...

080013dc <HAL_RTC_AlarmIRQHandler>:
  if(__HAL_RTC_ALARM_GET_IT_SOURCE(hrtc, RTC_IT_ALRA))
 80013dc:	6803      	ldr	r3, [r0, #0]
{  
 80013de:	b510      	push	{r4, lr}
  if(__HAL_RTC_ALARM_GET_IT_SOURCE(hrtc, RTC_IT_ALRA))
 80013e0:	681a      	ldr	r2, [r3, #0]
{  
 80013e2:	4604      	mov	r4, r0
  if(__HAL_RTC_ALARM_GET_IT_SOURCE(hrtc, RTC_IT_ALRA))
 80013e4:	0792      	lsls	r2, r2, #30
 80013e6:	d508      	bpl.n	80013fa <HAL_RTC_AlarmIRQHandler+0x1e>
    if(__HAL_RTC_ALARM_GET_FLAG(hrtc, RTC_FLAG_ALRAF) != (uint32_t)RESET)
 80013e8:	685b      	ldr	r3, [r3, #4]
 80013ea:	079b      	lsls	r3, r3, #30
 80013ec:	d505      	bpl.n	80013fa <HAL_RTC_AlarmIRQHandler+0x1e>
      HAL_RTC_AlarmAEventCallback(hrtc);
 80013ee:	f7ff fff3 	bl	80013d8 <HAL_RTC_AlarmAEventCallback>
      __HAL_RTC_ALARM_CLEAR_FLAG(hrtc,RTC_FLAG_ALRAF);
 80013f2:	f06f 0202 	mvn.w	r2, #2
 80013f6:	6823      	ldr	r3, [r4, #0]
 80013f8:	605a      	str	r2, [r3, #4]
  __HAL_RTC_ALARM_EXTI_CLEAR_FLAG();
 80013fa:	f44f 3200 	mov.w	r2, #131072	; 0x20000
 80013fe:	4b02      	ldr	r3, [pc, #8]	; (8001408 <HAL_RTC_AlarmIRQHandler+0x2c>)
 8001400:	615a      	str	r2, [r3, #20]
  hrtc->State = HAL_RTC_STATE_READY; 
 8001402:	2301      	movs	r3, #1
 8001404:	7463      	strb	r3, [r4, #17]
 8001406:	bd10      	pop	{r4, pc}
 8001408:	40010400 	.word	0x40010400

0800140c <HAL_RTC_WaitForSynchro>:
{
 800140c:	b538      	push	{r3, r4, r5, lr}
  if(hrtc == NULL)
 800140e:	4604      	mov	r4, r0
 8001410:	b1a8      	cbz	r0, 800143e <HAL_RTC_WaitForSynchro+0x32>
  CLEAR_BIT(hrtc->Instance->CRL, RTC_FLAG_RSF);
 8001412:	6802      	ldr	r2, [r0, #0]
 8001414:	6853      	ldr	r3, [r2, #4]
 8001416:	f023 0308 	bic.w	r3, r3, #8
 800141a:	6053      	str	r3, [r2, #4]
  tickstart = HAL_GetTick();
 800141c:	f7fe fede 	bl	80001dc <HAL_GetTick>
 8001420:	4605      	mov	r5, r0
  while((hrtc->Instance->CRL & RTC_FLAG_RSF) == (uint32_t)RESET)
 8001422:	6823      	ldr	r3, [r4, #0]
 8001424:	685b      	ldr	r3, [r3, #4]
 8001426:	071b      	lsls	r3, r3, #28
 8001428:	d501      	bpl.n	800142e <HAL_RTC_WaitForSynchro+0x22>
  return HAL_OK;
 800142a:	2000      	movs	r0, #0
 800142c:	bd38      	pop	{r3, r4, r5, pc}
    if((HAL_GetTick() - tickstart ) >  RTC_TIMEOUT_VALUE)
 800142e:	f7fe fed5 	bl	80001dc <HAL_GetTick>
 8001432:	1b40      	subs	r0, r0, r5
 8001434:	f5b0 7f7a 	cmp.w	r0, #1000	; 0x3e8
 8001438:	d9f3      	bls.n	8001422 <HAL_RTC_WaitForSynchro+0x16>
      return HAL_TIMEOUT;
 800143a:	2003      	movs	r0, #3
}
 800143c:	bd38      	pop	{r3, r4, r5, pc}
     return HAL_ERROR;
 800143e:	2001      	movs	r0, #1
 8001440:	bd38      	pop	{r3, r4, r5, pc}
	...

08001444 <HAL_RTC_Init>:
{
 8001444:	b510      	push	{r4, lr}
  if(hrtc == NULL)
 8001446:	4604      	mov	r4, r0
 8001448:	b170      	cbz	r0, 8001468 <HAL_RTC_Init+0x24>
  if(hrtc->State == HAL_RTC_STATE_RESET)
 800144a:	7c43      	ldrb	r3, [r0, #17]
 800144c:	f003 02ff 	and.w	r2, r3, #255	; 0xff
 8001450:	b913      	cbnz	r3, 8001458 <HAL_RTC_Init+0x14>
    hrtc->Lock = HAL_UNLOCKED;
 8001452:	7402      	strb	r2, [r0, #16]
    HAL_RTC_MspInit(hrtc);
 8001454:	f002 f864 	bl	8003520 <HAL_RTC_MspInit>
  hrtc->State = HAL_RTC_STATE_BUSY;  
 8001458:	2302      	movs	r3, #2
  if(HAL_RTC_WaitForSynchro(hrtc) != HAL_OK)
 800145a:	4620      	mov	r0, r4
  hrtc->State = HAL_RTC_STATE_BUSY;  
 800145c:	7463      	strb	r3, [r4, #17]
  if(HAL_RTC_WaitForSynchro(hrtc) != HAL_OK)
 800145e:	f7ff ffd5 	bl	800140c <HAL_RTC_WaitForSynchro>
 8001462:	b118      	cbz	r0, 800146c <HAL_RTC_Init+0x28>
        hrtc->State = HAL_RTC_STATE_ERROR;
 8001464:	2304      	movs	r3, #4
 8001466:	7463      	strb	r3, [r4, #17]
     return HAL_ERROR;
 8001468:	2001      	movs	r0, #1
}
 800146a:	bd10      	pop	{r4, pc}
  if(RTC_EnterInitMode(hrtc) != HAL_OK)
 800146c:	4620      	mov	r0, r4
 800146e:	f7ff fd8c 	bl	8000f8a <RTC_EnterInitMode>
 8001472:	2800      	cmp	r0, #0
 8001474:	d1f6      	bne.n	8001464 <HAL_RTC_Init+0x20>
    CLEAR_BIT(hrtc->Instance->CRL, (RTC_FLAG_OW | RTC_FLAG_ALRAF | RTC_FLAG_SEC));
 8001476:	6822      	ldr	r2, [r4, #0]
    if(hrtc->Init.OutPut != RTC_OUTPUTSOURCE_NONE)
 8001478:	68a0      	ldr	r0, [r4, #8]
    CLEAR_BIT(hrtc->Instance->CRL, (RTC_FLAG_OW | RTC_FLAG_ALRAF | RTC_FLAG_SEC));
 800147a:	6853      	ldr	r3, [r2, #4]
 800147c:	f023 0307 	bic.w	r3, r3, #7
 8001480:	6053      	str	r3, [r2, #4]
 8001482:	4a17      	ldr	r2, [pc, #92]	; (80014e0 <HAL_RTC_Init+0x9c>)
    if(hrtc->Init.OutPut != RTC_OUTPUTSOURCE_NONE)
 8001484:	b118      	cbz	r0, 800148e <HAL_RTC_Init+0x4a>
      CLEAR_BIT(BKP->CR, BKP_CR_TPE);
 8001486:	6b11      	ldr	r1, [r2, #48]	; 0x30
 8001488:	f021 0101 	bic.w	r1, r1, #1
 800148c:	6311      	str	r1, [r2, #48]	; 0x30
    MODIFY_REG(BKP->RTCCR, (BKP_RTCCR_CCO | BKP_RTCCR_ASOE | BKP_RTCCR_ASOS), hrtc->Init.OutPut);
 800148e:	6ad3      	ldr	r3, [r2, #44]	; 0x2c
 8001490:	f423 7360 	bic.w	r3, r3, #896	; 0x380
 8001494:	4303      	orrs	r3, r0
 8001496:	62d3      	str	r3, [r2, #44]	; 0x2c
    if (hrtc->Init.AsynchPrediv != RTC_AUTO_1_SECOND)
 8001498:	6860      	ldr	r0, [r4, #4]
 800149a:	1c43      	adds	r3, r0, #1
 800149c:	d105      	bne.n	80014aa <HAL_RTC_Init+0x66>
      prescaler = HAL_RCCEx_GetPeriphCLKFreq(RCC_PERIPHCLK_RTC);
 800149e:	2001      	movs	r0, #1
 80014a0:	f7ff fc9a 	bl	8000dd8 <HAL_RCCEx_GetPeriphCLKFreq>
      if (prescaler == 0U)
 80014a4:	2800      	cmp	r0, #0
 80014a6:	d0dd      	beq.n	8001464 <HAL_RTC_Init+0x20>
        prescaler = prescaler - 1U;
 80014a8:	3801      	subs	r0, #1
    MODIFY_REG(hrtc->Instance->PRLH, RTC_PRLH_PRL, (prescaler >> 16U));
 80014aa:	6822      	ldr	r2, [r4, #0]
 80014ac:	6893      	ldr	r3, [r2, #8]
 80014ae:	f023 030f 	bic.w	r3, r3, #15
 80014b2:	ea43 4310 	orr.w	r3, r3, r0, lsr #16
 80014b6:	6093      	str	r3, [r2, #8]
    MODIFY_REG(hrtc->Instance->PRLL, RTC_PRLL_PRL, (prescaler & RTC_PRLL_PRL));
 80014b8:	68d3      	ldr	r3, [r2, #12]
 80014ba:	b280      	uxth	r0, r0
 80014bc:	0c1b      	lsrs	r3, r3, #16
 80014be:	041b      	lsls	r3, r3, #16
 80014c0:	4318      	orrs	r0, r3
 80014c2:	60d0      	str	r0, [r2, #12]
    if(RTC_ExitInitMode(hrtc) != HAL_OK)
 80014c4:	4620      	mov	r0, r4
 80014c6:	f7ff fd77 	bl	8000fb8 <RTC_ExitInitMode>
 80014ca:	2301      	movs	r3, #1
 80014cc:	b110      	cbz	r0, 80014d4 <HAL_RTC_Init+0x90>
      hrtc->State = HAL_RTC_STATE_ERROR;
 80014ce:	2204      	movs	r2, #4
 80014d0:	7462      	strb	r2, [r4, #17]
 80014d2:	e7c9      	b.n	8001468 <HAL_RTC_Init+0x24>
    hrtc->DateToUpdate.Year = 0x00U;
 80014d4:	73e0      	strb	r0, [r4, #15]
    hrtc->DateToUpdate.Month = RTC_MONTH_JANUARY;
 80014d6:	7363      	strb	r3, [r4, #13]
    hrtc->DateToUpdate.Date = 0x01U;
 80014d8:	73a3      	strb	r3, [r4, #14]
    hrtc->State = HAL_RTC_STATE_READY;
 80014da:	7463      	strb	r3, [r4, #17]
    return HAL_OK;
 80014dc:	bd10      	pop	{r4, pc}
 80014de:	bf00      	nop
 80014e0:	40006c00 	.word	0x40006c00

080014e4 <SPI_WaitFlagStateUntilTimeout>:
  * @param Timeout: Timeout duration
  * @param Tickstart: tick start value
  * @retval HAL status
  */
static HAL_StatusTypeDef SPI_WaitFlagStateUntilTimeout(SPI_HandleTypeDef *hspi, uint32_t Flag, uint32_t State, uint32_t Timeout, uint32_t Tickstart)
{
 80014e4:	e92d 41f0 	stmdb	sp!, {r4, r5, r6, r7, r8, lr}
 80014e8:	4604      	mov	r4, r0
 80014ea:	4688      	mov	r8, r1
 80014ec:	4617      	mov	r7, r2
 80014ee:	461d      	mov	r5, r3
 80014f0:	9e06      	ldr	r6, [sp, #24]
  while((((hspi->Instance->SR & Flag) == (Flag)) ? SET : RESET) != State)
 80014f2:	6822      	ldr	r2, [r4, #0]
 80014f4:	6893      	ldr	r3, [r2, #8]
 80014f6:	ea38 0303 	bics.w	r3, r8, r3
 80014fa:	bf0c      	ite	eq
 80014fc:	2301      	moveq	r3, #1
 80014fe:	2300      	movne	r3, #0
 8001500:	429f      	cmp	r7, r3
 8001502:	d102      	bne.n	800150a <SPI_WaitFlagStateUntilTimeout+0x26>
        return HAL_TIMEOUT;
      }
    }
  }

  return HAL_OK;
 8001504:	2000      	movs	r0, #0
}
 8001506:	e8bd 81f0 	ldmia.w	sp!, {r4, r5, r6, r7, r8, pc}
    if(Timeout != HAL_MAX_DELAY)
 800150a:	1c6b      	adds	r3, r5, #1
 800150c:	d0f2      	beq.n	80014f4 <SPI_WaitFlagStateUntilTimeout+0x10>
      if((Timeout == 0U) || ((HAL_GetTick()-Tickstart) >= Timeout))
 800150e:	bb55      	cbnz	r5, 8001566 <SPI_WaitFlagStateUntilTimeout+0x82>
        __HAL_SPI_DISABLE_IT(hspi, (SPI_IT_TXE | SPI_IT_RXNE | SPI_IT_ERR));
 8001510:	6823      	ldr	r3, [r4, #0]
 8001512:	685a      	ldr	r2, [r3, #4]
 8001514:	f022 02e0 	bic.w	r2, r2, #224	; 0xe0
 8001518:	605a      	str	r2, [r3, #4]
        if((hspi->Init.Mode == SPI_MODE_MASTER)&&((hspi->Init.Direction == SPI_DIRECTION_1LINE)||(hspi->Init.Direction == SPI_DIRECTION_2LINES_RXONLY)))
 800151a:	6862      	ldr	r2, [r4, #4]
 800151c:	f5b2 7f82 	cmp.w	r2, #260	; 0x104
 8001520:	d10a      	bne.n	8001538 <SPI_WaitFlagStateUntilTimeout+0x54>
 8001522:	68a2      	ldr	r2, [r4, #8]
 8001524:	f5b2 4f00 	cmp.w	r2, #32768	; 0x8000
 8001528:	d002      	beq.n	8001530 <SPI_WaitFlagStateUntilTimeout+0x4c>
 800152a:	f5b2 6f80 	cmp.w	r2, #1024	; 0x400
 800152e:	d103      	bne.n	8001538 <SPI_WaitFlagStateUntilTimeout+0x54>
          __HAL_SPI_DISABLE(hspi);
 8001530:	681a      	ldr	r2, [r3, #0]
 8001532:	f022 0240 	bic.w	r2, r2, #64	; 0x40
 8001536:	601a      	str	r2, [r3, #0]
        if(hspi->Init.CRCCalculation == SPI_CRCCALCULATION_ENABLE)
 8001538:	6aa2      	ldr	r2, [r4, #40]	; 0x28
 800153a:	f5b2 5f00 	cmp.w	r2, #8192	; 0x2000
 800153e:	d109      	bne.n	8001554 <SPI_WaitFlagStateUntilTimeout+0x70>
          SPI_RESET_CRC(hspi);
 8001540:	681a      	ldr	r2, [r3, #0]
 8001542:	f422 5200 	bic.w	r2, r2, #8192	; 0x2000
 8001546:	0412      	lsls	r2, r2, #16
 8001548:	0c12      	lsrs	r2, r2, #16
 800154a:	601a      	str	r2, [r3, #0]
 800154c:	681a      	ldr	r2, [r3, #0]
 800154e:	f442 5200 	orr.w	r2, r2, #8192	; 0x2000
 8001552:	601a      	str	r2, [r3, #0]
        hspi->State= HAL_SPI_STATE_READY;
 8001554:	2301      	movs	r3, #1
 8001556:	f884 3051 	strb.w	r3, [r4, #81]	; 0x51
        __HAL_UNLOCK(hspi);
 800155a:	2300      	movs	r3, #0
 800155c:	2003      	movs	r0, #3
 800155e:	f884 3050 	strb.w	r3, [r4, #80]	; 0x50
 8001562:	e8bd 81f0 	ldmia.w	sp!, {r4, r5, r6, r7, r8, pc}
      if((Timeout == 0U) || ((HAL_GetTick()-Tickstart) >= Timeout))
 8001566:	f7fe fe39 	bl	80001dc <HAL_GetTick>
 800156a:	1b80      	subs	r0, r0, r6
 800156c:	4285      	cmp	r5, r0
 800156e:	d8c0      	bhi.n	80014f2 <SPI_WaitFlagStateUntilTimeout+0xe>
 8001570:	e7ce      	b.n	8001510 <SPI_WaitFlagStateUntilTimeout+0x2c>

08001572 <SPI_CheckFlag_BSY>:
  * @param Timeout: Timeout duration
  * @param Tickstart: tick start value
  * @retval HAL status
  */
static HAL_StatusTypeDef SPI_CheckFlag_BSY(SPI_HandleTypeDef *hspi, uint32_t Timeout, uint32_t Tickstart)
{
 8001572:	b513      	push	{r0, r1, r4, lr}
  /* Control the BSY flag */
  if(SPI_WaitFlagStateUntilTimeout(hspi, SPI_FLAG_BSY, RESET, Timeout, Tickstart) != HAL_OK)
 8001574:	460b      	mov	r3, r1
 8001576:	9200      	str	r2, [sp, #0]
 8001578:	2180      	movs	r1, #128	; 0x80
 800157a:	2200      	movs	r2, #0
{
 800157c:	4604      	mov	r4, r0
  if(SPI_WaitFlagStateUntilTimeout(hspi, SPI_FLAG_BSY, RESET, Timeout, Tickstart) != HAL_OK)
 800157e:	f7ff ffb1 	bl	80014e4 <SPI_WaitFlagStateUntilTimeout>
 8001582:	b120      	cbz	r0, 800158e <SPI_CheckFlag_BSY+0x1c>
  {
    SET_BIT(hspi->ErrorCode, HAL_SPI_ERROR_FLAG);
    return HAL_TIMEOUT;
 8001584:	2003      	movs	r0, #3
    SET_BIT(hspi->ErrorCode, HAL_SPI_ERROR_FLAG);
 8001586:	6d63      	ldr	r3, [r4, #84]	; 0x54
 8001588:	f043 0320 	orr.w	r3, r3, #32
 800158c:	6563      	str	r3, [r4, #84]	; 0x54
  }
  return HAL_OK;
}
 800158e:	b002      	add	sp, #8
 8001590:	bd10      	pop	{r4, pc}

08001592 <HAL_SPI_TransmitReceive>:
{
 8001592:	e92d 43f0 	stmdb	sp!, {r4, r5, r6, r7, r8, r9, lr}
 8001596:	4699      	mov	r9, r3
  __HAL_LOCK(hspi);
 8001598:	f890 3050 	ldrb.w	r3, [r0, #80]	; 0x50
{
 800159c:	b085      	sub	sp, #20
  __HAL_LOCK(hspi);
 800159e:	2b01      	cmp	r3, #1
{
 80015a0:	4604      	mov	r4, r0
 80015a2:	460d      	mov	r5, r1
 80015a4:	4616      	mov	r6, r2
 80015a6:	9f0c      	ldr	r7, [sp, #48]	; 0x30
  __HAL_LOCK(hspi);
 80015a8:	f000 80ee 	beq.w	8001788 <HAL_SPI_TransmitReceive+0x1f6>
 80015ac:	2301      	movs	r3, #1
 80015ae:	f880 3050 	strb.w	r3, [r0, #80]	; 0x50
  tickstart = HAL_GetTick();
 80015b2:	f7fe fe13 	bl	80001dc <HAL_GetTick>
  tmp  = hspi->State;
 80015b6:	f894 3051 	ldrb.w	r3, [r4, #81]	; 0x51
  tickstart = HAL_GetTick();
 80015ba:	4680      	mov	r8, r0
  tmp  = hspi->State;
 80015bc:	b2db      	uxtb	r3, r3
  if(!((tmp == HAL_SPI_STATE_READY) || \
 80015be:	2b01      	cmp	r3, #1
  tmp1 = hspi->Init.Mode;
 80015c0:	6861      	ldr	r1, [r4, #4]
  if(!((tmp == HAL_SPI_STATE_READY) || \
 80015c2:	d00a      	beq.n	80015da <HAL_SPI_TransmitReceive+0x48>
 80015c4:	f5b1 7f82 	cmp.w	r1, #260	; 0x104
 80015c8:	f040 80dc 	bne.w	8001784 <HAL_SPI_TransmitReceive+0x1f2>
    ((tmp1 == SPI_MODE_MASTER) && (hspi->Init.Direction == SPI_DIRECTION_2LINES) && (tmp == HAL_SPI_STATE_BUSY_RX))))
 80015cc:	68a2      	ldr	r2, [r4, #8]
 80015ce:	2a00      	cmp	r2, #0
 80015d0:	f040 80d8 	bne.w	8001784 <HAL_SPI_TransmitReceive+0x1f2>
 80015d4:	2b04      	cmp	r3, #4
 80015d6:	f040 80d5 	bne.w	8001784 <HAL_SPI_TransmitReceive+0x1f2>
  if((pTxData == NULL) || (pRxData == NULL) || (Size == 0U))
 80015da:	2d00      	cmp	r5, #0
 80015dc:	d04e      	beq.n	800167c <HAL_SPI_TransmitReceive+0xea>
 80015de:	2e00      	cmp	r6, #0
 80015e0:	d04c      	beq.n	800167c <HAL_SPI_TransmitReceive+0xea>
 80015e2:	f1b9 0f00 	cmp.w	r9, #0
 80015e6:	d049      	beq.n	800167c <HAL_SPI_TransmitReceive+0xea>
  if(hspi->State == HAL_SPI_STATE_READY)
 80015e8:	f894 3051 	ldrb.w	r3, [r4, #81]	; 0x51
  hspi->pRxBuffPtr  = (uint8_t *)pRxData;
 80015ec:	63a6      	str	r6, [r4, #56]	; 0x38
  if(hspi->State == HAL_SPI_STATE_READY)
 80015ee:	2b01      	cmp	r3, #1
    hspi->State = HAL_SPI_STATE_BUSY_TX_RX;
 80015f0:	bf04      	itt	eq
 80015f2:	2305      	moveq	r3, #5
 80015f4:	f884 3051 	strbeq.w	r3, [r4, #81]	; 0x51
  hspi->ErrorCode   = HAL_SPI_ERROR_NONE;
 80015f8:	2300      	movs	r3, #0
 80015fa:	6563      	str	r3, [r4, #84]	; 0x54
  hspi->RxISR       = NULL;
 80015fc:	6423      	str	r3, [r4, #64]	; 0x40
  hspi->TxISR       = NULL;
 80015fe:	6463      	str	r3, [r4, #68]	; 0x44
  if((hspi->Instance->CR1 &SPI_CR1_SPE) != SPI_CR1_SPE)
 8001600:	6823      	ldr	r3, [r4, #0]
  hspi->RxXferCount = Size;
 8001602:	f8a4 903e 	strh.w	r9, [r4, #62]	; 0x3e
  hspi->TxXferCount = Size;
 8001606:	f8a4 9036 	strh.w	r9, [r4, #54]	; 0x36
  if((hspi->Instance->CR1 &SPI_CR1_SPE) != SPI_CR1_SPE)
 800160a:	681a      	ldr	r2, [r3, #0]
  hspi->RxXferSize  = Size;
 800160c:	f8a4 903c 	strh.w	r9, [r4, #60]	; 0x3c
  if((hspi->Instance->CR1 &SPI_CR1_SPE) != SPI_CR1_SPE)
 8001610:	0650      	lsls	r0, r2, #25
    __HAL_SPI_ENABLE(hspi);
 8001612:	bf58      	it	pl
 8001614:	681a      	ldrpl	r2, [r3, #0]
  hspi->pTxBuffPtr  = (uint8_t *)pTxData;
 8001616:	6325      	str	r5, [r4, #48]	; 0x30
    __HAL_SPI_ENABLE(hspi);
 8001618:	bf58      	it	pl
 800161a:	f042 0240 	orrpl.w	r2, r2, #64	; 0x40
  hspi->TxXferSize  = Size;
 800161e:	f8a4 9034 	strh.w	r9, [r4, #52]	; 0x34
    __HAL_SPI_ENABLE(hspi);
 8001622:	bf58      	it	pl
 8001624:	601a      	strpl	r2, [r3, #0]
  if(hspi->Init.DataSize == SPI_DATASIZE_16BIT)
 8001626:	68e2      	ldr	r2, [r4, #12]
 8001628:	f5b2 6f00 	cmp.w	r2, #2048	; 0x800
 800162c:	d15d      	bne.n	80016ea <HAL_SPI_TransmitReceive+0x158>
    if((hspi->Init.Mode == SPI_MODE_SLAVE) || (hspi->TxXferCount == 0x01U))
 800162e:	b119      	cbz	r1, 8001638 <HAL_SPI_TransmitReceive+0xa6>
 8001630:	8ee2      	ldrh	r2, [r4, #54]	; 0x36
 8001632:	b292      	uxth	r2, r2
 8001634:	2a01      	cmp	r2, #1
 8001636:	d106      	bne.n	8001646 <HAL_SPI_TransmitReceive+0xb4>
      hspi->Instance->DR = *((uint16_t *)pTxData);
 8001638:	f835 2b02 	ldrh.w	r2, [r5], #2
 800163c:	60da      	str	r2, [r3, #12]
      hspi->TxXferCount--;
 800163e:	8ee3      	ldrh	r3, [r4, #54]	; 0x36
 8001640:	3b01      	subs	r3, #1
 8001642:	b29b      	uxth	r3, r3
 8001644:	86e3      	strh	r3, [r4, #54]	; 0x36
        txallowed = 1U;
 8001646:	f04f 0901 	mov.w	r9, #1
    while ((hspi->TxXferCount > 0U) || (hspi->RxXferCount > 0U))
 800164a:	8ee3      	ldrh	r3, [r4, #54]	; 0x36
 800164c:	b29b      	uxth	r3, r3
 800164e:	b9bb      	cbnz	r3, 8001680 <HAL_SPI_TransmitReceive+0xee>
 8001650:	8fe3      	ldrh	r3, [r4, #62]	; 0x3e
 8001652:	b29b      	uxth	r3, r3
 8001654:	b9a3      	cbnz	r3, 8001680 <HAL_SPI_TransmitReceive+0xee>
  if(SPI_WaitFlagStateUntilTimeout(hspi, SPI_FLAG_TXE, SET, Timeout, tickstart) != HAL_OK)
 8001656:	f8cd 8000 	str.w	r8, [sp]
 800165a:	463b      	mov	r3, r7
 800165c:	2201      	movs	r2, #1
 800165e:	2102      	movs	r1, #2
 8001660:	4620      	mov	r0, r4
 8001662:	f7ff ff3f 	bl	80014e4 <SPI_WaitFlagStateUntilTimeout>
 8001666:	2800      	cmp	r0, #0
 8001668:	d135      	bne.n	80016d6 <HAL_SPI_TransmitReceive+0x144>
  if(SPI_CheckFlag_BSY(hspi, Timeout, tickstart) != HAL_OK)
 800166a:	4642      	mov	r2, r8
 800166c:	4639      	mov	r1, r7
 800166e:	4620      	mov	r0, r4
 8001670:	f7ff ff7f 	bl	8001572 <SPI_CheckFlag_BSY>
 8001674:	2800      	cmp	r0, #0
 8001676:	d07a      	beq.n	800176e <HAL_SPI_TransmitReceive+0x1dc>
    hspi->ErrorCode = HAL_SPI_ERROR_FLAG;
 8001678:	2320      	movs	r3, #32
 800167a:	6563      	str	r3, [r4, #84]	; 0x54
    errorcode = HAL_ERROR;
 800167c:	2001      	movs	r0, #1
 800167e:	e02b      	b.n	80016d8 <HAL_SPI_TransmitReceive+0x146>
      if(txallowed && (hspi->TxXferCount > 0U) && (__HAL_SPI_GET_FLAG(hspi, SPI_FLAG_TXE)))
 8001680:	f1b9 0f00 	cmp.w	r9, #0
 8001684:	d00f      	beq.n	80016a6 <HAL_SPI_TransmitReceive+0x114>
 8001686:	8ee3      	ldrh	r3, [r4, #54]	; 0x36
 8001688:	b29b      	uxth	r3, r3
 800168a:	b163      	cbz	r3, 80016a6 <HAL_SPI_TransmitReceive+0x114>
 800168c:	6823      	ldr	r3, [r4, #0]
 800168e:	689a      	ldr	r2, [r3, #8]
 8001690:	0791      	lsls	r1, r2, #30
 8001692:	d508      	bpl.n	80016a6 <HAL_SPI_TransmitReceive+0x114>
        txallowed = 0U;
 8001694:	f04f 0900 	mov.w	r9, #0
        hspi->Instance->DR = *((uint16_t *)pTxData);
 8001698:	f835 2b02 	ldrh.w	r2, [r5], #2
 800169c:	60da      	str	r2, [r3, #12]
        hspi->TxXferCount--;
 800169e:	8ee3      	ldrh	r3, [r4, #54]	; 0x36
 80016a0:	3b01      	subs	r3, #1
 80016a2:	b29b      	uxth	r3, r3
 80016a4:	86e3      	strh	r3, [r4, #54]	; 0x36
      if((hspi->RxXferCount > 0U) && (__HAL_SPI_GET_FLAG(hspi, SPI_FLAG_RXNE)))
 80016a6:	8fe3      	ldrh	r3, [r4, #62]	; 0x3e
 80016a8:	b29b      	uxth	r3, r3
 80016aa:	b163      	cbz	r3, 80016c6 <HAL_SPI_TransmitReceive+0x134>
 80016ac:	6823      	ldr	r3, [r4, #0]
 80016ae:	689a      	ldr	r2, [r3, #8]
 80016b0:	07d2      	lsls	r2, r2, #31
 80016b2:	d508      	bpl.n	80016c6 <HAL_SPI_TransmitReceive+0x134>
        txallowed = 1U;
 80016b4:	f04f 0901 	mov.w	r9, #1
        *((uint16_t *)pRxData) = hspi->Instance->DR;
 80016b8:	68db      	ldr	r3, [r3, #12]
 80016ba:	f826 3b02 	strh.w	r3, [r6], #2
        hspi->RxXferCount--;
 80016be:	8fe3      	ldrh	r3, [r4, #62]	; 0x3e
 80016c0:	3b01      	subs	r3, #1
 80016c2:	b29b      	uxth	r3, r3
 80016c4:	87e3      	strh	r3, [r4, #62]	; 0x3e
      if((Timeout != HAL_MAX_DELAY) && ((HAL_GetTick()-tickstart) >=  Timeout))
 80016c6:	1c78      	adds	r0, r7, #1
 80016c8:	d0bf      	beq.n	800164a <HAL_SPI_TransmitReceive+0xb8>
 80016ca:	f7fe fd87 	bl	80001dc <HAL_GetTick>
 80016ce:	eba0 0008 	sub.w	r0, r0, r8
 80016d2:	4287      	cmp	r7, r0
 80016d4:	d8b9      	bhi.n	800164a <HAL_SPI_TransmitReceive+0xb8>
        errorcode = HAL_TIMEOUT;
 80016d6:	2003      	movs	r0, #3
  hspi->State = HAL_SPI_STATE_READY;
 80016d8:	2301      	movs	r3, #1
 80016da:	f884 3051 	strb.w	r3, [r4, #81]	; 0x51
  __HAL_UNLOCK(hspi);
 80016de:	2300      	movs	r3, #0
 80016e0:	f884 3050 	strb.w	r3, [r4, #80]	; 0x50
}
 80016e4:	b005      	add	sp, #20
 80016e6:	e8bd 83f0 	ldmia.w	sp!, {r4, r5, r6, r7, r8, r9, pc}
    if((hspi->Init.Mode == SPI_MODE_SLAVE) || (hspi->TxXferCount == 0x01U))
 80016ea:	b119      	cbz	r1, 80016f4 <HAL_SPI_TransmitReceive+0x162>
 80016ec:	8ee2      	ldrh	r2, [r4, #54]	; 0x36
 80016ee:	b292      	uxth	r2, r2
 80016f0:	2a01      	cmp	r2, #1
 80016f2:	d106      	bne.n	8001702 <HAL_SPI_TransmitReceive+0x170>
      *((__IO uint8_t*)&hspi->Instance->DR) = (*pTxData);
 80016f4:	f815 2b01 	ldrb.w	r2, [r5], #1
 80016f8:	731a      	strb	r2, [r3, #12]
      hspi->TxXferCount--;
 80016fa:	8ee3      	ldrh	r3, [r4, #54]	; 0x36
 80016fc:	3b01      	subs	r3, #1
 80016fe:	b29b      	uxth	r3, r3
 8001700:	86e3      	strh	r3, [r4, #54]	; 0x36
        txallowed = 1U;
 8001702:	f04f 0901 	mov.w	r9, #1
    while((hspi->TxXferCount > 0U) || (hspi->RxXferCount > 0U))
 8001706:	8ee3      	ldrh	r3, [r4, #54]	; 0x36
 8001708:	b29b      	uxth	r3, r3
 800170a:	b91b      	cbnz	r3, 8001714 <HAL_SPI_TransmitReceive+0x182>
 800170c:	8fe3      	ldrh	r3, [r4, #62]	; 0x3e
 800170e:	b29b      	uxth	r3, r3
 8001710:	2b00      	cmp	r3, #0
 8001712:	d0a0      	beq.n	8001656 <HAL_SPI_TransmitReceive+0xc4>
      if(txallowed && (hspi->TxXferCount > 0U) && (__HAL_SPI_GET_FLAG(hspi, SPI_FLAG_TXE)))
 8001714:	f1b9 0f00 	cmp.w	r9, #0
 8001718:	d00f      	beq.n	800173a <HAL_SPI_TransmitReceive+0x1a8>
 800171a:	8ee3      	ldrh	r3, [r4, #54]	; 0x36
 800171c:	b29b      	uxth	r3, r3
 800171e:	b163      	cbz	r3, 800173a <HAL_SPI_TransmitReceive+0x1a8>
 8001720:	6823      	ldr	r3, [r4, #0]
 8001722:	689a      	ldr	r2, [r3, #8]
 8001724:	0791      	lsls	r1, r2, #30
 8001726:	d508      	bpl.n	800173a <HAL_SPI_TransmitReceive+0x1a8>
        txallowed = 0U;
 8001728:	f04f 0900 	mov.w	r9, #0
        *(__IO uint8_t *)&hspi->Instance->DR = (*pTxData++);
 800172c:	782a      	ldrb	r2, [r5, #0]
 800172e:	3501      	adds	r5, #1
 8001730:	731a      	strb	r2, [r3, #12]
        hspi->TxXferCount--;
 8001732:	8ee3      	ldrh	r3, [r4, #54]	; 0x36
 8001734:	3b01      	subs	r3, #1
 8001736:	b29b      	uxth	r3, r3
 8001738:	86e3      	strh	r3, [r4, #54]	; 0x36
      if((hspi->RxXferCount > 0U) && (__HAL_SPI_GET_FLAG(hspi, SPI_FLAG_RXNE)))
 800173a:	8fe3      	ldrh	r3, [r4, #62]	; 0x3e
 800173c:	b29b      	uxth	r3, r3
 800173e:	b16b      	cbz	r3, 800175c <HAL_SPI_TransmitReceive+0x1ca>
 8001740:	6823      	ldr	r3, [r4, #0]
 8001742:	689a      	ldr	r2, [r3, #8]
 8001744:	07d2      	lsls	r2, r2, #31
 8001746:	d509      	bpl.n	800175c <HAL_SPI_TransmitReceive+0x1ca>
        txallowed = 1U;
 8001748:	f04f 0901 	mov.w	r9, #1
        (*(uint8_t *)pRxData++) = hspi->Instance->DR;
 800174c:	68db      	ldr	r3, [r3, #12]
 800174e:	3601      	adds	r6, #1
 8001750:	f806 3c01 	strb.w	r3, [r6, #-1]
        hspi->RxXferCount--;
 8001754:	8fe3      	ldrh	r3, [r4, #62]	; 0x3e
 8001756:	3b01      	subs	r3, #1
 8001758:	b29b      	uxth	r3, r3
 800175a:	87e3      	strh	r3, [r4, #62]	; 0x3e
      if((Timeout != HAL_MAX_DELAY) && ((HAL_GetTick()-tickstart) >=  Timeout))
 800175c:	1c7b      	adds	r3, r7, #1
 800175e:	d0d2      	beq.n	8001706 <HAL_SPI_TransmitReceive+0x174>
 8001760:	f7fe fd3c 	bl	80001dc <HAL_GetTick>
 8001764:	eba0 0008 	sub.w	r0, r0, r8
 8001768:	4287      	cmp	r7, r0
 800176a:	d8cc      	bhi.n	8001706 <HAL_SPI_TransmitReceive+0x174>
 800176c:	e7b3      	b.n	80016d6 <HAL_SPI_TransmitReceive+0x144>
  if(hspi->Init.Direction == SPI_DIRECTION_2LINES)
 800176e:	68a3      	ldr	r3, [r4, #8]
 8001770:	2b00      	cmp	r3, #0
 8001772:	d1b1      	bne.n	80016d8 <HAL_SPI_TransmitReceive+0x146>
    __HAL_SPI_CLEAR_OVRFLAG(hspi);
 8001774:	6823      	ldr	r3, [r4, #0]
 8001776:	9003      	str	r0, [sp, #12]
 8001778:	68da      	ldr	r2, [r3, #12]
 800177a:	9203      	str	r2, [sp, #12]
 800177c:	689b      	ldr	r3, [r3, #8]
 800177e:	9303      	str	r3, [sp, #12]
 8001780:	9b03      	ldr	r3, [sp, #12]
 8001782:	e7a9      	b.n	80016d8 <HAL_SPI_TransmitReceive+0x146>
    errorcode = HAL_BUSY;
 8001784:	2002      	movs	r0, #2
 8001786:	e7a7      	b.n	80016d8 <HAL_SPI_TransmitReceive+0x146>
  __HAL_LOCK(hspi);
 8001788:	2002      	movs	r0, #2
 800178a:	e7ab      	b.n	80016e4 <HAL_SPI_TransmitReceive+0x152>

0800178c <HAL_SPI_Init>:
  * @param  hspi: pointer to a SPI_HandleTypeDef structure that contains
  *                the configuration information for SPI module.
  * @retval HAL status
  */
HAL_StatusTypeDef HAL_SPI_Init(SPI_HandleTypeDef *hspi)
{
 800178c:	b510      	push	{r4, lr}
  /* Check the SPI handle allocation */
  if(hspi == NULL)
 800178e:	4604      	mov	r4, r0
 8001790:	2800      	cmp	r0, #0
 8001792:	d034      	beq.n	80017fe <HAL_SPI_Init+0x72>
  if(hspi->Init.CRCCalculation == SPI_CRCCALCULATION_ENABLE)
  {
    assert_param(IS_SPI_CRC_POLYNOMIAL(hspi->Init.CRCPolynomial));
  }
#else
  hspi->Init.CRCCalculation = SPI_CRCCALCULATION_DISABLE;
 8001794:	2300      	movs	r3, #0
 8001796:	6283      	str	r3, [r0, #40]	; 0x28
#endif /* USE_SPI_CRC */

  if(hspi->State == HAL_SPI_STATE_RESET)
 8001798:	f890 3051 	ldrb.w	r3, [r0, #81]	; 0x51
 800179c:	b90b      	cbnz	r3, 80017a2 <HAL_SPI_Init+0x16>
  {
    /* Init the low level hardware : GPIO, CLOCK, NVIC... */
    HAL_SPI_MspInit(hspi);
 800179e:	f001 ff0b 	bl	80035b8 <HAL_SPI_MspInit>
  }
  
  hspi->State = HAL_SPI_STATE_BUSY;
 80017a2:	2302      	movs	r3, #2

  /* Disble the selected SPI peripheral */
  __HAL_SPI_DISABLE(hspi);
 80017a4:	6821      	ldr	r1, [r4, #0]
  hspi->State = HAL_SPI_STATE_BUSY;
 80017a6:	f884 3051 	strb.w	r3, [r4, #81]	; 0x51
  __HAL_SPI_DISABLE(hspi);
 80017aa:	680b      	ldr	r3, [r1, #0]

  /*----------------------- SPIx CR1 & CR2 Configuration ---------------------*/
  /* Configure : SPI Mode, Communication Mode, Data size, Clock polarity and phase, NSS management,
  Communication speed, First bit and CRC calculation state */
  WRITE_REG(hspi->Instance->CR1, (hspi->Init.Mode | hspi->Init.Direction | hspi->Init.DataSize |
 80017ac:	68a0      	ldr	r0, [r4, #8]
  __HAL_SPI_DISABLE(hspi);
 80017ae:	f023 0340 	bic.w	r3, r3, #64	; 0x40
 80017b2:	600b      	str	r3, [r1, #0]
  WRITE_REG(hspi->Instance->CR1, (hspi->Init.Mode | hspi->Init.Direction | hspi->Init.DataSize |
 80017b4:	6863      	ldr	r3, [r4, #4]
 80017b6:	69a2      	ldr	r2, [r4, #24]
 80017b8:	4303      	orrs	r3, r0
 80017ba:	68e0      	ldr	r0, [r4, #12]
 80017bc:	4303      	orrs	r3, r0
 80017be:	6920      	ldr	r0, [r4, #16]
 80017c0:	4303      	orrs	r3, r0
 80017c2:	6960      	ldr	r0, [r4, #20]
 80017c4:	4303      	orrs	r3, r0
 80017c6:	69e0      	ldr	r0, [r4, #28]
 80017c8:	4303      	orrs	r3, r0
 80017ca:	6a20      	ldr	r0, [r4, #32]
 80017cc:	4303      	orrs	r3, r0
 80017ce:	6aa0      	ldr	r0, [r4, #40]	; 0x28
 80017d0:	4303      	orrs	r3, r0
 80017d2:	f402 7000 	and.w	r0, r2, #512	; 0x200
 80017d6:	4303      	orrs	r3, r0
 80017d8:	600b      	str	r3, [r1, #0]
                                  hspi->Init.CLKPolarity | hspi->Init.CLKPhase | (hspi->Init.NSS & SPI_CR1_SSM) |
                                  hspi->Init.BaudRatePrescaler | hspi->Init.FirstBit  | hspi->Init.CRCCalculation) );

  /* Configure : NSS management */
  WRITE_REG(hspi->Instance->CR2, (((hspi->Init.NSS >> 16U) & SPI_CR2_SSOE) | hspi->Init.TIMode));
 80017da:	0c12      	lsrs	r2, r2, #16
 80017dc:	6a63      	ldr	r3, [r4, #36]	; 0x24
 80017de:	f002 0204 	and.w	r2, r2, #4
 80017e2:	431a      	orrs	r2, r3

  /*---------------------------- SPIx CRCPOLY Configuration ------------------*/
  /* Configure : CRC Polynomial */
  WRITE_REG(hspi->Instance->CRCPR, hspi->Init.CRCPolynomial);
 80017e4:	6ae3      	ldr	r3, [r4, #44]	; 0x2c
  WRITE_REG(hspi->Instance->CR2, (((hspi->Init.NSS >> 16U) & SPI_CR2_SSOE) | hspi->Init.TIMode));
 80017e6:	604a      	str	r2, [r1, #4]
  WRITE_REG(hspi->Instance->CRCPR, hspi->Init.CRCPolynomial);
 80017e8:	610b      	str	r3, [r1, #16]

#if defined(SPI_I2SCFGR_I2SMOD)
  /* Activate the SPI mode (Make sure that I2SMOD bit in I2SCFGR register is reset) */
  CLEAR_BIT(hspi->Instance->I2SCFGR, SPI_I2SCFGR_I2SMOD);
 80017ea:	69cb      	ldr	r3, [r1, #28]
#else
  uCRCErrorWorkaroundCheck = 0U;
#endif /* STM32F101xE || STM32F103xE */
#endif /* USE_SPI_CRC */

  hspi->ErrorCode = HAL_SPI_ERROR_NONE;
 80017ec:	2000      	movs	r0, #0
  CLEAR_BIT(hspi->Instance->I2SCFGR, SPI_I2SCFGR_I2SMOD);
 80017ee:	f423 6300 	bic.w	r3, r3, #2048	; 0x800
 80017f2:	61cb      	str	r3, [r1, #28]
  hspi->State = HAL_SPI_STATE_READY;
 80017f4:	2301      	movs	r3, #1
  hspi->ErrorCode = HAL_SPI_ERROR_NONE;
 80017f6:	6560      	str	r0, [r4, #84]	; 0x54
  hspi->State = HAL_SPI_STATE_READY;
 80017f8:	f884 3051 	strb.w	r3, [r4, #81]	; 0x51
  
  return HAL_OK;
 80017fc:	bd10      	pop	{r4, pc}
    return HAL_ERROR;
 80017fe:	2001      	movs	r0, #1
}
 8001800:	bd10      	pop	{r4, pc}

08001802 <UART_EndRxTransfer>:
  * @retval None
  */
static void UART_EndRxTransfer(UART_HandleTypeDef *huart)
{
  /* Disable RXNE, PE and ERR (Frame error, noise error, overrun error) interrupts */
  CLEAR_BIT(huart->Instance->CR1, (USART_CR1_RXNEIE | USART_CR1_PEIE));
 8001802:	6803      	ldr	r3, [r0, #0]
 8001804:	68da      	ldr	r2, [r3, #12]
 8001806:	f422 7290 	bic.w	r2, r2, #288	; 0x120
 800180a:	60da      	str	r2, [r3, #12]
  CLEAR_BIT(huart->Instance->CR3, USART_CR3_EIE);
 800180c:	695a      	ldr	r2, [r3, #20]
 800180e:	f022 0201 	bic.w	r2, r2, #1
 8001812:	615a      	str	r2, [r3, #20]

  /* At end of Rx process, restore huart->RxState to Ready */
  huart->RxState = HAL_UART_STATE_READY;
 8001814:	2320      	movs	r3, #32
 8001816:	f880 303a 	strb.w	r3, [r0, #58]	; 0x3a
 800181a:	4770      	bx	lr

0800181c <UART_SetConfig>:
  * @param  huart: pointer to a UART_HandleTypeDef structure that contains
  *                the configuration information for the specified UART module.
  * @retval None
  */
static void UART_SetConfig(UART_HandleTypeDef *huart)
{
 800181c:	e92d 47f0 	stmdb	sp!, {r4, r5, r6, r7, r8, r9, sl, lr}
  assert_param(IS_UART_MODE(huart->Init.Mode));

  /*------- UART-associated USART registers setting : CR2 Configuration ------*/
  /* Configure the UART Stop Bits: Set STOP[13:12] bits according 
   * to huart->Init.StopBits value */
  MODIFY_REG(huart->Instance->CR2, USART_CR2_STOP, huart->Init.StopBits);
 8001820:	6805      	ldr	r5, [r0, #0]
 8001822:	68c2      	ldr	r2, [r0, #12]
 8001824:	692b      	ldr	r3, [r5, #16]
  tmpreg |= (uint32_t)huart->Init.WordLength | huart->Init.Parity | huart->Init.Mode | huart->Init.OverSampling;
  MODIFY_REG(huart->Instance->CR1, 
             (uint32_t)(USART_CR1_M | USART_CR1_PCE | USART_CR1_PS | USART_CR1_TE | USART_CR1_RE | USART_CR1_OVER8), 
             tmpreg);
#else
  tmpreg |= (uint32_t)huart->Init.WordLength | huart->Init.Parity | huart->Init.Mode;
 8001826:	6901      	ldr	r1, [r0, #16]
  MODIFY_REG(huart->Instance->CR2, USART_CR2_STOP, huart->Init.StopBits);
 8001828:	f423 5340 	bic.w	r3, r3, #12288	; 0x3000
 800182c:	4313      	orrs	r3, r2
 800182e:	612b      	str	r3, [r5, #16]
  tmpreg |= (uint32_t)huart->Init.WordLength | huart->Init.Parity | huart->Init.Mode;
 8001830:	6883      	ldr	r3, [r0, #8]
  MODIFY_REG(huart->Instance->CR1, 
 8001832:	68ea      	ldr	r2, [r5, #12]
  tmpreg |= (uint32_t)huart->Init.WordLength | huart->Init.Parity | huart->Init.Mode;
 8001834:	430b      	orrs	r3, r1
 8001836:	6941      	ldr	r1, [r0, #20]
  MODIFY_REG(huart->Instance->CR1, 
 8001838:	f422 52b0 	bic.w	r2, r2, #5632	; 0x1600
 800183c:	f022 020c 	bic.w	r2, r2, #12
  tmpreg |= (uint32_t)huart->Init.WordLength | huart->Init.Parity | huart->Init.Mode;
 8001840:	430b      	orrs	r3, r1
  MODIFY_REG(huart->Instance->CR1, 
 8001842:	4313      	orrs	r3, r2
 8001844:	60eb      	str	r3, [r5, #12]
             tmpreg);
#endif /* USART_CR1_OVER8 */

  /*------- UART-associated USART registers setting : CR3 Configuration ------*/
  /* Configure the UART HFC: Set CTSE and RTSE bits according to huart->Init.HwFlowCtl value */
  MODIFY_REG(huart->Instance->CR3, (USART_CR3_RTSE | USART_CR3_CTSE), huart->Init.HwFlowCtl);
 8001846:	696b      	ldr	r3, [r5, #20]
 8001848:	6982      	ldr	r2, [r0, #24]
 800184a:	f423 7340 	bic.w	r3, r3, #768	; 0x300
 800184e:	4313      	orrs	r3, r2
 8001850:	616b      	str	r3, [r5, #20]
      huart->Instance->BRR = UART_BRR_SAMPLING16(HAL_RCC_GetPCLK1Freq(), huart->Init.BaudRate);
    }
  }
#else
  /*-------------------------- USART BRR Configuration ---------------------*/
  if(huart->Instance == USART1)
 8001852:	4b40      	ldr	r3, [pc, #256]	; (8001954 <UART_SetConfig+0x138>)
{
 8001854:	4681      	mov	r9, r0
  if(huart->Instance == USART1)
 8001856:	429d      	cmp	r5, r3
 8001858:	f04f 0419 	mov.w	r4, #25
 800185c:	d146      	bne.n	80018ec <UART_SetConfig+0xd0>
  {
    huart->Instance->BRR = UART_BRR_SAMPLING16(HAL_RCC_GetPCLK2Freq(), huart->Init.BaudRate);
 800185e:	f7ff fa33 	bl	8000cc8 <HAL_RCC_GetPCLK2Freq>
 8001862:	fb04 f300 	mul.w	r3, r4, r0
 8001866:	f8d9 6004 	ldr.w	r6, [r9, #4]
 800186a:	f04f 0864 	mov.w	r8, #100	; 0x64
 800186e:	00b6      	lsls	r6, r6, #2
 8001870:	fbb3 f3f6 	udiv	r3, r3, r6
 8001874:	fbb3 f3f8 	udiv	r3, r3, r8
 8001878:	011e      	lsls	r6, r3, #4
 800187a:	f7ff fa25 	bl	8000cc8 <HAL_RCC_GetPCLK2Freq>
 800187e:	4360      	muls	r0, r4
 8001880:	f8d9 3004 	ldr.w	r3, [r9, #4]
 8001884:	009b      	lsls	r3, r3, #2
 8001886:	fbb0 f7f3 	udiv	r7, r0, r3
 800188a:	f7ff fa1d 	bl	8000cc8 <HAL_RCC_GetPCLK2Freq>
 800188e:	4360      	muls	r0, r4
 8001890:	f8d9 3004 	ldr.w	r3, [r9, #4]
 8001894:	009b      	lsls	r3, r3, #2
 8001896:	fbb0 f3f3 	udiv	r3, r0, r3
 800189a:	fbb3 f3f8 	udiv	r3, r3, r8
 800189e:	fb08 7313 	mls	r3, r8, r3, r7
 80018a2:	011b      	lsls	r3, r3, #4
 80018a4:	3332      	adds	r3, #50	; 0x32
 80018a6:	fbb3 f3f8 	udiv	r3, r3, r8
 80018aa:	f003 07f0 	and.w	r7, r3, #240	; 0xf0
 80018ae:	f7ff fa0b 	bl	8000cc8 <HAL_RCC_GetPCLK2Freq>
 80018b2:	4360      	muls	r0, r4
 80018b4:	f8d9 2004 	ldr.w	r2, [r9, #4]
 80018b8:	0092      	lsls	r2, r2, #2
 80018ba:	fbb0 faf2 	udiv	sl, r0, r2
 80018be:	f7ff fa03 	bl	8000cc8 <HAL_RCC_GetPCLK2Freq>
  }
  else
  {
    huart->Instance->BRR = UART_BRR_SAMPLING16(HAL_RCC_GetPCLK1Freq(), huart->Init.BaudRate);
 80018c2:	4360      	muls	r0, r4
 80018c4:	f8d9 3004 	ldr.w	r3, [r9, #4]
 80018c8:	009b      	lsls	r3, r3, #2
 80018ca:	fbb0 f3f3 	udiv	r3, r0, r3
 80018ce:	fbb3 f3f8 	udiv	r3, r3, r8
 80018d2:	fb08 a313 	mls	r3, r8, r3, sl
 80018d6:	011b      	lsls	r3, r3, #4
 80018d8:	3332      	adds	r3, #50	; 0x32
 80018da:	fbb3 f3f8 	udiv	r3, r3, r8
 80018de:	f003 030f 	and.w	r3, r3, #15
 80018e2:	433b      	orrs	r3, r7
 80018e4:	4433      	add	r3, r6
 80018e6:	60ab      	str	r3, [r5, #8]
 80018e8:	e8bd 87f0 	ldmia.w	sp!, {r4, r5, r6, r7, r8, r9, sl, pc}
 80018ec:	f7ff f9dc 	bl	8000ca8 <HAL_RCC_GetPCLK1Freq>
 80018f0:	fb04 f300 	mul.w	r3, r4, r0
 80018f4:	f8d9 6004 	ldr.w	r6, [r9, #4]
 80018f8:	f04f 0864 	mov.w	r8, #100	; 0x64
 80018fc:	00b6      	lsls	r6, r6, #2
 80018fe:	fbb3 f3f6 	udiv	r3, r3, r6
 8001902:	fbb3 f3f8 	udiv	r3, r3, r8
 8001906:	011e      	lsls	r6, r3, #4
 8001908:	f7ff f9ce 	bl	8000ca8 <HAL_RCC_GetPCLK1Freq>
 800190c:	4360      	muls	r0, r4
 800190e:	f8d9 3004 	ldr.w	r3, [r9, #4]
 8001912:	009b      	lsls	r3, r3, #2
 8001914:	fbb0 f7f3 	udiv	r7, r0, r3
 8001918:	f7ff f9c6 	bl	8000ca8 <HAL_RCC_GetPCLK1Freq>
 800191c:	4360      	muls	r0, r4
 800191e:	f8d9 3004 	ldr.w	r3, [r9, #4]
 8001922:	009b      	lsls	r3, r3, #2
 8001924:	fbb0 f3f3 	udiv	r3, r0, r3
 8001928:	fbb3 f3f8 	udiv	r3, r3, r8
 800192c:	fb08 7313 	mls	r3, r8, r3, r7
 8001930:	011b      	lsls	r3, r3, #4
 8001932:	3332      	adds	r3, #50	; 0x32
 8001934:	fbb3 f3f8 	udiv	r3, r3, r8
 8001938:	f003 07f0 	and.w	r7, r3, #240	; 0xf0
 800193c:	f7ff f9b4 	bl	8000ca8 <HAL_RCC_GetPCLK1Freq>
 8001940:	4360      	muls	r0, r4
 8001942:	f8d9 2004 	ldr.w	r2, [r9, #4]
 8001946:	0092      	lsls	r2, r2, #2
 8001948:	fbb0 faf2 	udiv	sl, r0, r2
 800194c:	f7ff f9ac 	bl	8000ca8 <HAL_RCC_GetPCLK1Freq>
 8001950:	e7b7      	b.n	80018c2 <UART_SetConfig+0xa6>
 8001952:	bf00      	nop
 8001954:	40013800 	.word	0x40013800

08001958 <UART_WaitOnFlagUntilTimeout.constprop.3>:
static HAL_StatusTypeDef UART_WaitOnFlagUntilTimeout(UART_HandleTypeDef *huart, uint32_t Flag, FlagStatus Status, uint32_t Tickstart, uint32_t Timeout)
 8001958:	b5f8      	push	{r3, r4, r5, r6, r7, lr}
 800195a:	4604      	mov	r4, r0
 800195c:	460e      	mov	r6, r1
 800195e:	4617      	mov	r7, r2
 8001960:	461d      	mov	r5, r3
  while((__HAL_UART_GET_FLAG(huart, Flag) ? SET : RESET) == Status) 
 8001962:	6821      	ldr	r1, [r4, #0]
 8001964:	680b      	ldr	r3, [r1, #0]
 8001966:	ea36 0303 	bics.w	r3, r6, r3
 800196a:	d101      	bne.n	8001970 <UART_WaitOnFlagUntilTimeout.constprop.3+0x18>
  return HAL_OK;
 800196c:	2000      	movs	r0, #0
}
 800196e:	bdf8      	pop	{r3, r4, r5, r6, r7, pc}
    if(Timeout != HAL_MAX_DELAY)
 8001970:	1c6b      	adds	r3, r5, #1
 8001972:	d0f7      	beq.n	8001964 <UART_WaitOnFlagUntilTimeout.constprop.3+0xc>
      if((Timeout == 0U)||((HAL_GetTick() - Tickstart ) > Timeout))
 8001974:	b995      	cbnz	r5, 800199c <UART_WaitOnFlagUntilTimeout.constprop.3+0x44>
        CLEAR_BIT(huart->Instance->CR1, (USART_CR1_RXNEIE | USART_CR1_PEIE | USART_CR1_TXEIE));
 8001976:	6823      	ldr	r3, [r4, #0]
        __HAL_UNLOCK(huart);
 8001978:	2003      	movs	r0, #3
        CLEAR_BIT(huart->Instance->CR1, (USART_CR1_RXNEIE | USART_CR1_PEIE | USART_CR1_TXEIE));
 800197a:	68da      	ldr	r2, [r3, #12]
 800197c:	f422 72d0 	bic.w	r2, r2, #416	; 0x1a0
 8001980:	60da      	str	r2, [r3, #12]
        CLEAR_BIT(huart->Instance->CR3, USART_CR3_EIE);
 8001982:	695a      	ldr	r2, [r3, #20]
 8001984:	f022 0201 	bic.w	r2, r2, #1
 8001988:	615a      	str	r2, [r3, #20]
        huart->gState  = HAL_UART_STATE_READY;
 800198a:	2320      	movs	r3, #32
 800198c:	f884 3039 	strb.w	r3, [r4, #57]	; 0x39
        huart->RxState = HAL_UART_STATE_READY;
 8001990:	f884 303a 	strb.w	r3, [r4, #58]	; 0x3a
        __HAL_UNLOCK(huart);
 8001994:	2300      	movs	r3, #0
 8001996:	f884 3038 	strb.w	r3, [r4, #56]	; 0x38
 800199a:	bdf8      	pop	{r3, r4, r5, r6, r7, pc}
      if((Timeout == 0U)||((HAL_GetTick() - Tickstart ) > Timeout))
 800199c:	f7fe fc1e 	bl	80001dc <HAL_GetTick>
 80019a0:	1bc0      	subs	r0, r0, r7
 80019a2:	4285      	cmp	r5, r0
 80019a4:	d2dd      	bcs.n	8001962 <UART_WaitOnFlagUntilTimeout.constprop.3+0xa>
 80019a6:	e7e6      	b.n	8001976 <UART_WaitOnFlagUntilTimeout.constprop.3+0x1e>

080019a8 <HAL_UART_Init>:
{
 80019a8:	b510      	push	{r4, lr}
  if(huart == NULL)
 80019aa:	4604      	mov	r4, r0
 80019ac:	b340      	cbz	r0, 8001a00 <HAL_UART_Init+0x58>
  if(huart->gState == HAL_UART_STATE_RESET)
 80019ae:	f890 3039 	ldrb.w	r3, [r0, #57]	; 0x39
 80019b2:	f003 02ff 	and.w	r2, r3, #255	; 0xff
 80019b6:	b91b      	cbnz	r3, 80019c0 <HAL_UART_Init+0x18>
    huart->Lock = HAL_UNLOCKED;
 80019b8:	f880 2038 	strb.w	r2, [r0, #56]	; 0x38
    HAL_UART_MspInit(huart);
 80019bc:	f001 ff1a 	bl	80037f4 <HAL_UART_MspInit>
  huart->gState = HAL_UART_STATE_BUSY;
 80019c0:	2324      	movs	r3, #36	; 0x24
  __HAL_UART_DISABLE(huart);
 80019c2:	6822      	ldr	r2, [r4, #0]
  huart->gState = HAL_UART_STATE_BUSY;
 80019c4:	f884 3039 	strb.w	r3, [r4, #57]	; 0x39
  __HAL_UART_DISABLE(huart);
 80019c8:	68d3      	ldr	r3, [r2, #12]
  UART_SetConfig(huart);
 80019ca:	4620      	mov	r0, r4
  __HAL_UART_DISABLE(huart);
 80019cc:	f423 5300 	bic.w	r3, r3, #8192	; 0x2000
 80019d0:	60d3      	str	r3, [r2, #12]
  UART_SetConfig(huart);
 80019d2:	f7ff ff23 	bl	800181c <UART_SetConfig>
  CLEAR_BIT(huart->Instance->CR2, (USART_CR2_LINEN | USART_CR2_CLKEN));
 80019d6:	6823      	ldr	r3, [r4, #0]
  huart->ErrorCode = HAL_UART_ERROR_NONE;
 80019d8:	2000      	movs	r0, #0
  CLEAR_BIT(huart->Instance->CR2, (USART_CR2_LINEN | USART_CR2_CLKEN));
 80019da:	691a      	ldr	r2, [r3, #16]
 80019dc:	f422 4290 	bic.w	r2, r2, #18432	; 0x4800
 80019e0:	611a      	str	r2, [r3, #16]
  CLEAR_BIT(huart->Instance->CR3, (USART_CR3_SCEN | USART_CR3_HDSEL | USART_CR3_IREN));
 80019e2:	695a      	ldr	r2, [r3, #20]
 80019e4:	f022 022a 	bic.w	r2, r2, #42	; 0x2a
 80019e8:	615a      	str	r2, [r3, #20]
  __HAL_UART_ENABLE(huart);
 80019ea:	68da      	ldr	r2, [r3, #12]
 80019ec:	f442 5200 	orr.w	r2, r2, #8192	; 0x2000
 80019f0:	60da      	str	r2, [r3, #12]
  huart->gState= HAL_UART_STATE_READY;
 80019f2:	2320      	movs	r3, #32
  huart->ErrorCode = HAL_UART_ERROR_NONE;
 80019f4:	63e0      	str	r0, [r4, #60]	; 0x3c
  huart->gState= HAL_UART_STATE_READY;
 80019f6:	f884 3039 	strb.w	r3, [r4, #57]	; 0x39
  huart->RxState= HAL_UART_STATE_READY;
 80019fa:	f884 303a 	strb.w	r3, [r4, #58]	; 0x3a
  return HAL_OK;
 80019fe:	bd10      	pop	{r4, pc}
    return HAL_ERROR;
 8001a00:	2001      	movs	r0, #1
}
 8001a02:	bd10      	pop	{r4, pc}

08001a04 <HAL_UART_Transmit>:
{
 8001a04:	e92d 41f0 	stmdb	sp!, {r4, r5, r6, r7, r8, lr}
 8001a08:	461f      	mov	r7, r3
  if(huart->gState == HAL_UART_STATE_READY)
 8001a0a:	f890 3039 	ldrb.w	r3, [r0, #57]	; 0x39
{
 8001a0e:	4604      	mov	r4, r0
  if(huart->gState == HAL_UART_STATE_READY)
 8001a10:	2b20      	cmp	r3, #32
{
 8001a12:	460d      	mov	r5, r1
 8001a14:	4690      	mov	r8, r2
  if(huart->gState == HAL_UART_STATE_READY)
 8001a16:	d14e      	bne.n	8001ab6 <HAL_UART_Transmit+0xb2>
    if((pData == NULL) || (Size == 0U))
 8001a18:	2900      	cmp	r1, #0
 8001a1a:	d049      	beq.n	8001ab0 <HAL_UART_Transmit+0xac>
 8001a1c:	2a00      	cmp	r2, #0
 8001a1e:	d047      	beq.n	8001ab0 <HAL_UART_Transmit+0xac>
    __HAL_LOCK(huart);
 8001a20:	f890 3038 	ldrb.w	r3, [r0, #56]	; 0x38
 8001a24:	2b01      	cmp	r3, #1
 8001a26:	d046      	beq.n	8001ab6 <HAL_UART_Transmit+0xb2>
 8001a28:	2301      	movs	r3, #1
 8001a2a:	f880 3038 	strb.w	r3, [r0, #56]	; 0x38
    huart->ErrorCode = HAL_UART_ERROR_NONE;
 8001a2e:	2300      	movs	r3, #0
 8001a30:	63c3      	str	r3, [r0, #60]	; 0x3c
    huart->gState = HAL_UART_STATE_BUSY_TX;
 8001a32:	2321      	movs	r3, #33	; 0x21
 8001a34:	f880 3039 	strb.w	r3, [r0, #57]	; 0x39
    tickstart = HAL_GetTick();
 8001a38:	f7fe fbd0 	bl	80001dc <HAL_GetTick>
 8001a3c:	4606      	mov	r6, r0
    huart->TxXferSize = Size;
 8001a3e:	f8a4 8024 	strh.w	r8, [r4, #36]	; 0x24
    huart->TxXferCount = Size;
 8001a42:	f8a4 8026 	strh.w	r8, [r4, #38]	; 0x26
    while(huart->TxXferCount > 0U)
 8001a46:	8ce3      	ldrh	r3, [r4, #38]	; 0x26
 8001a48:	b29b      	uxth	r3, r3
 8001a4a:	b96b      	cbnz	r3, 8001a68 <HAL_UART_Transmit+0x64>
    if(UART_WaitOnFlagUntilTimeout(huart, UART_FLAG_TC, RESET, tickstart, Timeout) != HAL_OK)
 8001a4c:	463b      	mov	r3, r7
 8001a4e:	4632      	mov	r2, r6
 8001a50:	2140      	movs	r1, #64	; 0x40
 8001a52:	4620      	mov	r0, r4
 8001a54:	f7ff ff80 	bl	8001958 <UART_WaitOnFlagUntilTimeout.constprop.3>
 8001a58:	b9a8      	cbnz	r0, 8001a86 <HAL_UART_Transmit+0x82>
    huart->gState = HAL_UART_STATE_READY;
 8001a5a:	2320      	movs	r3, #32
    __HAL_UNLOCK(huart);
 8001a5c:	f884 0038 	strb.w	r0, [r4, #56]	; 0x38
    huart->gState = HAL_UART_STATE_READY;
 8001a60:	f884 3039 	strb.w	r3, [r4, #57]	; 0x39
    return HAL_OK;
 8001a64:	e8bd 81f0 	ldmia.w	sp!, {r4, r5, r6, r7, r8, pc}
      huart->TxXferCount--;
 8001a68:	8ce3      	ldrh	r3, [r4, #38]	; 0x26
        if(UART_WaitOnFlagUntilTimeout(huart, UART_FLAG_TXE, RESET, tickstart, Timeout) != HAL_OK)
 8001a6a:	4632      	mov	r2, r6
      huart->TxXferCount--;
 8001a6c:	3b01      	subs	r3, #1
 8001a6e:	b29b      	uxth	r3, r3
 8001a70:	84e3      	strh	r3, [r4, #38]	; 0x26
      if(huart->Init.WordLength == UART_WORDLENGTH_9B)
 8001a72:	68a3      	ldr	r3, [r4, #8]
        if(UART_WaitOnFlagUntilTimeout(huart, UART_FLAG_TXE, RESET, tickstart, Timeout) != HAL_OK)
 8001a74:	2180      	movs	r1, #128	; 0x80
      if(huart->Init.WordLength == UART_WORDLENGTH_9B)
 8001a76:	f5b3 5f80 	cmp.w	r3, #4096	; 0x1000
        if(UART_WaitOnFlagUntilTimeout(huart, UART_FLAG_TXE, RESET, tickstart, Timeout) != HAL_OK)
 8001a7a:	4620      	mov	r0, r4
 8001a7c:	463b      	mov	r3, r7
      if(huart->Init.WordLength == UART_WORDLENGTH_9B)
 8001a7e:	d10e      	bne.n	8001a9e <HAL_UART_Transmit+0x9a>
        if(UART_WaitOnFlagUntilTimeout(huart, UART_FLAG_TXE, RESET, tickstart, Timeout) != HAL_OK)
 8001a80:	f7ff ff6a 	bl	8001958 <UART_WaitOnFlagUntilTimeout.constprop.3>
 8001a84:	b110      	cbz	r0, 8001a8c <HAL_UART_Transmit+0x88>
          return HAL_TIMEOUT;
 8001a86:	2003      	movs	r0, #3
 8001a88:	e8bd 81f0 	ldmia.w	sp!, {r4, r5, r6, r7, r8, pc}
        huart->Instance->DR = (*tmp & (uint16_t)0x01FF);
 8001a8c:	882b      	ldrh	r3, [r5, #0]
 8001a8e:	6822      	ldr	r2, [r4, #0]
 8001a90:	f3c3 0308 	ubfx	r3, r3, #0, #9
 8001a94:	6053      	str	r3, [r2, #4]
        if(huart->Init.Parity == UART_PARITY_NONE)
 8001a96:	6923      	ldr	r3, [r4, #16]
 8001a98:	b943      	cbnz	r3, 8001aac <HAL_UART_Transmit+0xa8>
          pData +=2U;
 8001a9a:	3502      	adds	r5, #2
 8001a9c:	e7d3      	b.n	8001a46 <HAL_UART_Transmit+0x42>
        if(UART_WaitOnFlagUntilTimeout(huart, UART_FLAG_TXE, RESET, tickstart, Timeout) != HAL_OK)
 8001a9e:	f7ff ff5b 	bl	8001958 <UART_WaitOnFlagUntilTimeout.constprop.3>
 8001aa2:	2800      	cmp	r0, #0
 8001aa4:	d1ef      	bne.n	8001a86 <HAL_UART_Transmit+0x82>
        huart->Instance->DR = (*pData++ & (uint8_t)0xFF);
 8001aa6:	6823      	ldr	r3, [r4, #0]
 8001aa8:	782a      	ldrb	r2, [r5, #0]
 8001aaa:	605a      	str	r2, [r3, #4]
 8001aac:	3501      	adds	r5, #1
 8001aae:	e7ca      	b.n	8001a46 <HAL_UART_Transmit+0x42>
      return  HAL_ERROR;
 8001ab0:	2001      	movs	r0, #1
 8001ab2:	e8bd 81f0 	ldmia.w	sp!, {r4, r5, r6, r7, r8, pc}
    return HAL_BUSY;
 8001ab6:	2002      	movs	r0, #2
}
 8001ab8:	e8bd 81f0 	ldmia.w	sp!, {r4, r5, r6, r7, r8, pc}

08001abc <HAL_UART_Receive_DMA>:
{
 8001abc:	4613      	mov	r3, r2
  if(huart->RxState == HAL_UART_STATE_READY) 
 8001abe:	f890 203a 	ldrb.w	r2, [r0, #58]	; 0x3a
{
 8001ac2:	b573      	push	{r0, r1, r4, r5, r6, lr}
  if(huart->RxState == HAL_UART_STATE_READY) 
 8001ac4:	2a20      	cmp	r2, #32
{
 8001ac6:	4605      	mov	r5, r0
  if(huart->RxState == HAL_UART_STATE_READY) 
 8001ac8:	d138      	bne.n	8001b3c <HAL_UART_Receive_DMA+0x80>
    if((pData == NULL) || (Size == 0U))
 8001aca:	2900      	cmp	r1, #0
 8001acc:	d034      	beq.n	8001b38 <HAL_UART_Receive_DMA+0x7c>
 8001ace:	2b00      	cmp	r3, #0
 8001ad0:	d032      	beq.n	8001b38 <HAL_UART_Receive_DMA+0x7c>
    __HAL_LOCK(huart);
 8001ad2:	f890 2038 	ldrb.w	r2, [r0, #56]	; 0x38
 8001ad6:	2a01      	cmp	r2, #1
 8001ad8:	d030      	beq.n	8001b3c <HAL_UART_Receive_DMA+0x80>
 8001ada:	2201      	movs	r2, #1
    huart->ErrorCode = HAL_UART_ERROR_NONE;
 8001adc:	2400      	movs	r4, #0
    __HAL_LOCK(huart);
 8001ade:	f880 2038 	strb.w	r2, [r0, #56]	; 0x38
    huart->RxState = HAL_UART_STATE_BUSY_RX;
 8001ae2:	2222      	movs	r2, #34	; 0x22
    huart->pRxBuffPtr = pData;
 8001ae4:	6281      	str	r1, [r0, #40]	; 0x28
    huart->RxXferSize = Size;
 8001ae6:	8583      	strh	r3, [r0, #44]	; 0x2c
    huart->ErrorCode = HAL_UART_ERROR_NONE;
 8001ae8:	63c4      	str	r4, [r0, #60]	; 0x3c
    huart->RxState = HAL_UART_STATE_BUSY_RX;
 8001aea:	f880 203a 	strb.w	r2, [r0, #58]	; 0x3a
    huart->hdmarx->XferCpltCallback = UART_DMAReceiveCplt;
 8001aee:	6b40      	ldr	r0, [r0, #52]	; 0x34
 8001af0:	4a13      	ldr	r2, [pc, #76]	; (8001b40 <HAL_UART_Receive_DMA+0x84>)
    HAL_DMA_Start_IT(huart->hdmarx, (uint32_t)&huart->Instance->DR, *(uint32_t*)tmp, Size);
 8001af2:	682e      	ldr	r6, [r5, #0]
    huart->hdmarx->XferCpltCallback = UART_DMAReceiveCplt;
 8001af4:	6282      	str	r2, [r0, #40]	; 0x28
    huart->hdmarx->XferHalfCpltCallback = UART_DMARxHalfCplt;
 8001af6:	4a13      	ldr	r2, [pc, #76]	; (8001b44 <HAL_UART_Receive_DMA+0x88>)
    huart->hdmarx->XferAbortCallback = NULL;
 8001af8:	6344      	str	r4, [r0, #52]	; 0x34
    huart->hdmarx->XferHalfCpltCallback = UART_DMARxHalfCplt;
 8001afa:	62c2      	str	r2, [r0, #44]	; 0x2c
    huart->hdmarx->XferErrorCallback = UART_DMAError;
 8001afc:	4a12      	ldr	r2, [pc, #72]	; (8001b48 <HAL_UART_Receive_DMA+0x8c>)
 8001afe:	6302      	str	r2, [r0, #48]	; 0x30
    HAL_DMA_Start_IT(huart->hdmarx, (uint32_t)&huart->Instance->DR, *(uint32_t*)tmp, Size);
 8001b00:	460a      	mov	r2, r1
 8001b02:	1d31      	adds	r1, r6, #4
 8001b04:	f7fe fc2e 	bl	8000364 <HAL_DMA_Start_IT>
    return HAL_OK;
 8001b08:	4620      	mov	r0, r4
    __HAL_UART_CLEAR_OREFLAG(huart);
 8001b0a:	682b      	ldr	r3, [r5, #0]
 8001b0c:	9401      	str	r4, [sp, #4]
 8001b0e:	681a      	ldr	r2, [r3, #0]
 8001b10:	9201      	str	r2, [sp, #4]
 8001b12:	685a      	ldr	r2, [r3, #4]
    __HAL_UNLOCK(huart);
 8001b14:	f885 4038 	strb.w	r4, [r5, #56]	; 0x38
    __HAL_UART_CLEAR_OREFLAG(huart);
 8001b18:	9201      	str	r2, [sp, #4]
 8001b1a:	9a01      	ldr	r2, [sp, #4]
    SET_BIT(huart->Instance->CR1, USART_CR1_PEIE);
 8001b1c:	68da      	ldr	r2, [r3, #12]
 8001b1e:	f442 7280 	orr.w	r2, r2, #256	; 0x100
 8001b22:	60da      	str	r2, [r3, #12]
    SET_BIT(huart->Instance->CR3, USART_CR3_EIE);
 8001b24:	695a      	ldr	r2, [r3, #20]
 8001b26:	f042 0201 	orr.w	r2, r2, #1
 8001b2a:	615a      	str	r2, [r3, #20]
    SET_BIT(huart->Instance->CR3, USART_CR3_DMAR);
 8001b2c:	695a      	ldr	r2, [r3, #20]
 8001b2e:	f042 0240 	orr.w	r2, r2, #64	; 0x40
 8001b32:	615a      	str	r2, [r3, #20]
}
 8001b34:	b002      	add	sp, #8
 8001b36:	bd70      	pop	{r4, r5, r6, pc}
      return HAL_ERROR;
 8001b38:	2001      	movs	r0, #1
 8001b3a:	e7fb      	b.n	8001b34 <HAL_UART_Receive_DMA+0x78>
    return HAL_BUSY;
 8001b3c:	2002      	movs	r0, #2
 8001b3e:	e7f9      	b.n	8001b34 <HAL_UART_Receive_DMA+0x78>
 8001b40:	08001b4d 	.word	0x08001b4d
 8001b44:	08001c03 	.word	0x08001c03
 8001b48:	08001c0d 	.word	0x08001c0d

08001b4c <UART_DMAReceiveCplt>:
{
 8001b4c:	b508      	push	{r3, lr}
  if((hdma->Instance->CCR & DMA_CCR_CIRC) == 0U)
 8001b4e:	6803      	ldr	r3, [r0, #0]
  UART_HandleTypeDef* huart = ( UART_HandleTypeDef* )((DMA_HandleTypeDef* )hdma)->Parent;
 8001b50:	6a42      	ldr	r2, [r0, #36]	; 0x24
  if((hdma->Instance->CCR & DMA_CCR_CIRC) == 0U)
 8001b52:	681b      	ldr	r3, [r3, #0]
 8001b54:	f013 0320 	ands.w	r3, r3, #32
 8001b58:	d110      	bne.n	8001b7c <UART_DMAReceiveCplt+0x30>
    huart->RxXferCount = 0U;
 8001b5a:	85d3      	strh	r3, [r2, #46]	; 0x2e
    CLEAR_BIT(huart->Instance->CR1, USART_CR1_PEIE);
 8001b5c:	6813      	ldr	r3, [r2, #0]
 8001b5e:	68d9      	ldr	r1, [r3, #12]
 8001b60:	f421 7180 	bic.w	r1, r1, #256	; 0x100
 8001b64:	60d9      	str	r1, [r3, #12]
    CLEAR_BIT(huart->Instance->CR3, USART_CR3_EIE);
 8001b66:	6959      	ldr	r1, [r3, #20]
 8001b68:	f021 0101 	bic.w	r1, r1, #1
 8001b6c:	6159      	str	r1, [r3, #20]
    CLEAR_BIT(huart->Instance->CR3, USART_CR3_DMAR);
 8001b6e:	6959      	ldr	r1, [r3, #20]
 8001b70:	f021 0140 	bic.w	r1, r1, #64	; 0x40
 8001b74:	6159      	str	r1, [r3, #20]
    huart->RxState = HAL_UART_STATE_READY;
 8001b76:	2320      	movs	r3, #32
 8001b78:	f882 303a 	strb.w	r3, [r2, #58]	; 0x3a
  HAL_UART_RxCpltCallback(huart);
 8001b7c:	4610      	mov	r0, r2
 8001b7e:	f000 fd89 	bl	8002694 <HAL_UART_RxCpltCallback>
 8001b82:	bd08      	pop	{r3, pc}

08001b84 <UART_Receive_IT>:
  if(huart->RxState == HAL_UART_STATE_BUSY_RX) 
 8001b84:	f890 303a 	ldrb.w	r3, [r0, #58]	; 0x3a
{
 8001b88:	b510      	push	{r4, lr}
  if(huart->RxState == HAL_UART_STATE_BUSY_RX) 
 8001b8a:	2b22      	cmp	r3, #34	; 0x22
 8001b8c:	d136      	bne.n	8001bfc <UART_Receive_IT+0x78>
    if(huart->Init.WordLength == UART_WORDLENGTH_9B)
 8001b8e:	6883      	ldr	r3, [r0, #8]
 8001b90:	6901      	ldr	r1, [r0, #16]
 8001b92:	f5b3 5f80 	cmp.w	r3, #4096	; 0x1000
 8001b96:	6802      	ldr	r2, [r0, #0]
 8001b98:	6a83      	ldr	r3, [r0, #40]	; 0x28
 8001b9a:	d123      	bne.n	8001be4 <UART_Receive_IT+0x60>
        *tmp = (uint16_t)(huart->Instance->DR & (uint16_t)0x01FF);
 8001b9c:	6852      	ldr	r2, [r2, #4]
      if(huart->Init.Parity == UART_PARITY_NONE)
 8001b9e:	b9e9      	cbnz	r1, 8001bdc <UART_Receive_IT+0x58>
        *tmp = (uint16_t)(huart->Instance->DR & (uint16_t)0x01FF);
 8001ba0:	f3c2 0208 	ubfx	r2, r2, #0, #9
 8001ba4:	f823 2b02 	strh.w	r2, [r3], #2
        huart->pRxBuffPtr += 1U;
 8001ba8:	6283      	str	r3, [r0, #40]	; 0x28
    if(--huart->RxXferCount == 0U)
 8001baa:	8dc4      	ldrh	r4, [r0, #46]	; 0x2e
 8001bac:	3c01      	subs	r4, #1
 8001bae:	b2a4      	uxth	r4, r4
 8001bb0:	85c4      	strh	r4, [r0, #46]	; 0x2e
 8001bb2:	b98c      	cbnz	r4, 8001bd8 <UART_Receive_IT+0x54>
      __HAL_UART_DISABLE_IT(huart, UART_IT_RXNE);
 8001bb4:	6803      	ldr	r3, [r0, #0]
 8001bb6:	68da      	ldr	r2, [r3, #12]
 8001bb8:	f022 0220 	bic.w	r2, r2, #32
 8001bbc:	60da      	str	r2, [r3, #12]
      __HAL_UART_DISABLE_IT(huart, UART_IT_PE);
 8001bbe:	68da      	ldr	r2, [r3, #12]
 8001bc0:	f422 7280 	bic.w	r2, r2, #256	; 0x100
 8001bc4:	60da      	str	r2, [r3, #12]
        __HAL_UART_DISABLE_IT(huart, UART_IT_ERR);
 8001bc6:	695a      	ldr	r2, [r3, #20]
 8001bc8:	f022 0201 	bic.w	r2, r2, #1
 8001bcc:	615a      	str	r2, [r3, #20]
      huart->RxState = HAL_UART_STATE_READY;
 8001bce:	2320      	movs	r3, #32
 8001bd0:	f880 303a 	strb.w	r3, [r0, #58]	; 0x3a
      HAL_UART_RxCpltCallback(huart);
 8001bd4:	f000 fd5e 	bl	8002694 <HAL_UART_RxCpltCallback>
    if(--huart->RxXferCount == 0U)
 8001bd8:	2000      	movs	r0, #0
}
 8001bda:	bd10      	pop	{r4, pc}
        *tmp = (uint16_t)(huart->Instance->DR & (uint16_t)0x00FF);
 8001bdc:	b2d2      	uxtb	r2, r2
 8001bde:	f823 2b01 	strh.w	r2, [r3], #1
 8001be2:	e7e1      	b.n	8001ba8 <UART_Receive_IT+0x24>
      if(huart->Init.Parity == UART_PARITY_NONE)
 8001be4:	b921      	cbnz	r1, 8001bf0 <UART_Receive_IT+0x6c>
        *huart->pRxBuffPtr++ = (uint8_t)(huart->Instance->DR & (uint8_t)0x00FF);
 8001be6:	1c59      	adds	r1, r3, #1
 8001be8:	6852      	ldr	r2, [r2, #4]
 8001bea:	6281      	str	r1, [r0, #40]	; 0x28
        *huart->pRxBuffPtr++ = (uint8_t)(huart->Instance->DR & (uint8_t)0x007F);
 8001bec:	701a      	strb	r2, [r3, #0]
 8001bee:	e7dc      	b.n	8001baa <UART_Receive_IT+0x26>
 8001bf0:	6852      	ldr	r2, [r2, #4]
 8001bf2:	1c59      	adds	r1, r3, #1
 8001bf4:	6281      	str	r1, [r0, #40]	; 0x28
 8001bf6:	f002 027f 	and.w	r2, r2, #127	; 0x7f
 8001bfa:	e7f7      	b.n	8001bec <UART_Receive_IT+0x68>
    return HAL_BUSY;
 8001bfc:	2002      	movs	r0, #2
 8001bfe:	bd10      	pop	{r4, pc}

08001c00 <HAL_UART_RxHalfCpltCallback>:
 8001c00:	4770      	bx	lr

08001c02 <UART_DMARxHalfCplt>:
{
 8001c02:	b508      	push	{r3, lr}
  HAL_UART_RxHalfCpltCallback(huart); 
 8001c04:	6a40      	ldr	r0, [r0, #36]	; 0x24
 8001c06:	f7ff fffb 	bl	8001c00 <HAL_UART_RxHalfCpltCallback>
 8001c0a:	bd08      	pop	{r3, pc}

08001c0c <UART_DMAError>:
  UART_HandleTypeDef* huart = ( UART_HandleTypeDef* )((DMA_HandleTypeDef* )hdma)->Parent;
 8001c0c:	6a41      	ldr	r1, [r0, #36]	; 0x24
{
 8001c0e:	b508      	push	{r3, lr}
  dmarequest = HAL_IS_BIT_SET(huart->Instance->CR3, USART_CR3_DMAT);
 8001c10:	680b      	ldr	r3, [r1, #0]
 8001c12:	695a      	ldr	r2, [r3, #20]
  if((huart->gState == HAL_UART_STATE_BUSY_TX) && dmarequest)
 8001c14:	f891 0039 	ldrb.w	r0, [r1, #57]	; 0x39
 8001c18:	2821      	cmp	r0, #33	; 0x21
 8001c1a:	d10a      	bne.n	8001c32 <UART_DMAError+0x26>
 8001c1c:	0612      	lsls	r2, r2, #24
 8001c1e:	d508      	bpl.n	8001c32 <UART_DMAError+0x26>
    huart->TxXferCount = 0U;
 8001c20:	2200      	movs	r2, #0
 8001c22:	84ca      	strh	r2, [r1, #38]	; 0x26
  CLEAR_BIT(huart->Instance->CR1, (USART_CR1_TXEIE | USART_CR1_TCIE));
 8001c24:	68da      	ldr	r2, [r3, #12]
 8001c26:	f022 02c0 	bic.w	r2, r2, #192	; 0xc0
 8001c2a:	60da      	str	r2, [r3, #12]
  huart->gState = HAL_UART_STATE_READY;
 8001c2c:	2220      	movs	r2, #32
 8001c2e:	f881 2039 	strb.w	r2, [r1, #57]	; 0x39
  dmarequest = HAL_IS_BIT_SET(huart->Instance->CR3, USART_CR3_DMAR); 
 8001c32:	695b      	ldr	r3, [r3, #20]
  if((huart->RxState == HAL_UART_STATE_BUSY_RX) && dmarequest)
 8001c34:	f891 203a 	ldrb.w	r2, [r1, #58]	; 0x3a
 8001c38:	2a22      	cmp	r2, #34	; 0x22
 8001c3a:	d106      	bne.n	8001c4a <UART_DMAError+0x3e>
 8001c3c:	065b      	lsls	r3, r3, #25
 8001c3e:	d504      	bpl.n	8001c4a <UART_DMAError+0x3e>
    huart->RxXferCount = 0U;
 8001c40:	2300      	movs	r3, #0
    UART_EndRxTransfer(huart);
 8001c42:	4608      	mov	r0, r1
    huart->RxXferCount = 0U;
 8001c44:	85cb      	strh	r3, [r1, #46]	; 0x2e
    UART_EndRxTransfer(huart);
 8001c46:	f7ff fddc 	bl	8001802 <UART_EndRxTransfer>
  huart->ErrorCode |= HAL_UART_ERROR_DMA;
 8001c4a:	6bcb      	ldr	r3, [r1, #60]	; 0x3c
  HAL_UART_ErrorCallback(huart);
 8001c4c:	4608      	mov	r0, r1
  huart->ErrorCode |= HAL_UART_ERROR_DMA;
 8001c4e:	f043 0310 	orr.w	r3, r3, #16
 8001c52:	63cb      	str	r3, [r1, #60]	; 0x3c
  HAL_UART_ErrorCallback(huart);
 8001c54:	f000 fd36 	bl	80026c4 <HAL_UART_ErrorCallback>
 8001c58:	bd08      	pop	{r3, pc}
	...

08001c5c <HAL_UART_IRQHandler>:
   uint32_t isrflags   = READ_REG(huart->Instance->SR);
 8001c5c:	6803      	ldr	r3, [r0, #0]
{
 8001c5e:	b570      	push	{r4, r5, r6, lr}
   uint32_t isrflags   = READ_REG(huart->Instance->SR);
 8001c60:	681a      	ldr	r2, [r3, #0]
{
 8001c62:	4604      	mov	r4, r0
  if(errorflags == RESET)
 8001c64:	0716      	lsls	r6, r2, #28
   uint32_t cr1its     = READ_REG(huart->Instance->CR1);
 8001c66:	68d9      	ldr	r1, [r3, #12]
   uint32_t cr3its     = READ_REG(huart->Instance->CR3);
 8001c68:	695d      	ldr	r5, [r3, #20]
  if(errorflags == RESET)
 8001c6a:	d107      	bne.n	8001c7c <HAL_UART_IRQHandler+0x20>
    if(((isrflags & USART_SR_RXNE) != RESET) && ((cr1its & USART_CR1_RXNEIE) != RESET))
 8001c6c:	0696      	lsls	r6, r2, #26
 8001c6e:	d55a      	bpl.n	8001d26 <HAL_UART_IRQHandler+0xca>
 8001c70:	068d      	lsls	r5, r1, #26
 8001c72:	d558      	bpl.n	8001d26 <HAL_UART_IRQHandler+0xca>
}
 8001c74:	e8bd 4070 	ldmia.w	sp!, {r4, r5, r6, lr}
      UART_Receive_IT(huart);
 8001c78:	f7ff bf84 	b.w	8001b84 <UART_Receive_IT>
  if((errorflags != RESET) && (((cr3its & USART_CR3_EIE) != RESET) || ((cr1its & (USART_CR1_RXNEIE | USART_CR1_PEIE)) != RESET)))
 8001c7c:	f015 0501 	ands.w	r5, r5, #1
 8001c80:	d102      	bne.n	8001c88 <HAL_UART_IRQHandler+0x2c>
 8001c82:	f411 7f90 	tst.w	r1, #288	; 0x120
 8001c86:	d04e      	beq.n	8001d26 <HAL_UART_IRQHandler+0xca>
    if(((isrflags & USART_SR_PE) != RESET) && ((cr1its & USART_CR1_PEIE) != RESET))
 8001c88:	07d3      	lsls	r3, r2, #31
 8001c8a:	d505      	bpl.n	8001c98 <HAL_UART_IRQHandler+0x3c>
 8001c8c:	05ce      	lsls	r6, r1, #23
      huart->ErrorCode |= HAL_UART_ERROR_PE;
 8001c8e:	bf42      	ittt	mi
 8001c90:	6be3      	ldrmi	r3, [r4, #60]	; 0x3c
 8001c92:	f043 0301 	orrmi.w	r3, r3, #1
 8001c96:	63e3      	strmi	r3, [r4, #60]	; 0x3c
    if(((isrflags & USART_SR_NE) != RESET) && ((cr3its & USART_CR3_EIE) != RESET))
 8001c98:	0750      	lsls	r0, r2, #29
 8001c9a:	d504      	bpl.n	8001ca6 <HAL_UART_IRQHandler+0x4a>
 8001c9c:	b11d      	cbz	r5, 8001ca6 <HAL_UART_IRQHandler+0x4a>
      huart->ErrorCode |= HAL_UART_ERROR_NE;
 8001c9e:	6be3      	ldr	r3, [r4, #60]	; 0x3c
 8001ca0:	f043 0302 	orr.w	r3, r3, #2
 8001ca4:	63e3      	str	r3, [r4, #60]	; 0x3c
    if(((isrflags & USART_SR_FE) != RESET) && ((cr3its & USART_CR3_EIE) != RESET))
 8001ca6:	0793      	lsls	r3, r2, #30
 8001ca8:	d504      	bpl.n	8001cb4 <HAL_UART_IRQHandler+0x58>
 8001caa:	b11d      	cbz	r5, 8001cb4 <HAL_UART_IRQHandler+0x58>
      huart->ErrorCode |= HAL_UART_ERROR_FE;
 8001cac:	6be3      	ldr	r3, [r4, #60]	; 0x3c
 8001cae:	f043 0304 	orr.w	r3, r3, #4
 8001cb2:	63e3      	str	r3, [r4, #60]	; 0x3c
    if(((isrflags & USART_SR_ORE) != RESET) && ((cr3its & USART_CR3_EIE) != RESET))
 8001cb4:	0716      	lsls	r6, r2, #28
 8001cb6:	d504      	bpl.n	8001cc2 <HAL_UART_IRQHandler+0x66>
 8001cb8:	b11d      	cbz	r5, 8001cc2 <HAL_UART_IRQHandler+0x66>
      huart->ErrorCode |= HAL_UART_ERROR_ORE;
 8001cba:	6be3      	ldr	r3, [r4, #60]	; 0x3c
 8001cbc:	f043 0308 	orr.w	r3, r3, #8
 8001cc0:	63e3      	str	r3, [r4, #60]	; 0x3c
    if(huart->ErrorCode != HAL_UART_ERROR_NONE)
 8001cc2:	6be3      	ldr	r3, [r4, #60]	; 0x3c
 8001cc4:	2b00      	cmp	r3, #0
 8001cc6:	d066      	beq.n	8001d96 <HAL_UART_IRQHandler+0x13a>
      if(((isrflags & USART_SR_RXNE) != RESET) && ((cr1its & USART_CR1_RXNEIE) != RESET))
 8001cc8:	0695      	lsls	r5, r2, #26
 8001cca:	d504      	bpl.n	8001cd6 <HAL_UART_IRQHandler+0x7a>
 8001ccc:	0688      	lsls	r0, r1, #26
 8001cce:	d502      	bpl.n	8001cd6 <HAL_UART_IRQHandler+0x7a>
        UART_Receive_IT(huart);
 8001cd0:	4620      	mov	r0, r4
 8001cd2:	f7ff ff57 	bl	8001b84 <UART_Receive_IT>
      dmarequest = HAL_IS_BIT_SET(huart->Instance->CR3, USART_CR3_DMAR);
 8001cd6:	6823      	ldr	r3, [r4, #0]
        UART_EndRxTransfer(huart);
 8001cd8:	4620      	mov	r0, r4
      dmarequest = HAL_IS_BIT_SET(huart->Instance->CR3, USART_CR3_DMAR);
 8001cda:	695d      	ldr	r5, [r3, #20]
      if(((huart->ErrorCode & HAL_UART_ERROR_ORE) != RESET) || dmarequest)
 8001cdc:	6be2      	ldr	r2, [r4, #60]	; 0x3c
 8001cde:	0711      	lsls	r1, r2, #28
 8001ce0:	d402      	bmi.n	8001ce8 <HAL_UART_IRQHandler+0x8c>
 8001ce2:	f015 0540 	ands.w	r5, r5, #64	; 0x40
 8001ce6:	d01a      	beq.n	8001d1e <HAL_UART_IRQHandler+0xc2>
        UART_EndRxTransfer(huart);
 8001ce8:	f7ff fd8b 	bl	8001802 <UART_EndRxTransfer>
        if(HAL_IS_BIT_SET(huart->Instance->CR3, USART_CR3_DMAR))
 8001cec:	6823      	ldr	r3, [r4, #0]
 8001cee:	695a      	ldr	r2, [r3, #20]
 8001cf0:	0652      	lsls	r2, r2, #25
 8001cf2:	d510      	bpl.n	8001d16 <HAL_UART_IRQHandler+0xba>
          CLEAR_BIT(huart->Instance->CR3, USART_CR3_DMAR);
 8001cf4:	695a      	ldr	r2, [r3, #20]
          if(huart->hdmarx != NULL)
 8001cf6:	6b60      	ldr	r0, [r4, #52]	; 0x34
          CLEAR_BIT(huart->Instance->CR3, USART_CR3_DMAR);
 8001cf8:	f022 0240 	bic.w	r2, r2, #64	; 0x40
 8001cfc:	615a      	str	r2, [r3, #20]
          if(huart->hdmarx != NULL)
 8001cfe:	b150      	cbz	r0, 8001d16 <HAL_UART_IRQHandler+0xba>
            huart->hdmarx->XferAbortCallback = UART_DMAAbortOnError;
 8001d00:	4b25      	ldr	r3, [pc, #148]	; (8001d98 <HAL_UART_IRQHandler+0x13c>)
 8001d02:	6343      	str	r3, [r0, #52]	; 0x34
            if(HAL_DMA_Abort_IT(huart->hdmarx) != HAL_OK)
 8001d04:	f7fe fb6c 	bl	80003e0 <HAL_DMA_Abort_IT>
 8001d08:	2800      	cmp	r0, #0
 8001d0a:	d044      	beq.n	8001d96 <HAL_UART_IRQHandler+0x13a>
              huart->hdmarx->XferAbortCallback(huart->hdmarx);
 8001d0c:	6b60      	ldr	r0, [r4, #52]	; 0x34
}
 8001d0e:	e8bd 4070 	ldmia.w	sp!, {r4, r5, r6, lr}
              huart->hdmarx->XferAbortCallback(huart->hdmarx);
 8001d12:	6b43      	ldr	r3, [r0, #52]	; 0x34
 8001d14:	4718      	bx	r3
            HAL_UART_ErrorCallback(huart);
 8001d16:	4620      	mov	r0, r4
 8001d18:	f000 fcd4 	bl	80026c4 <HAL_UART_ErrorCallback>
 8001d1c:	bd70      	pop	{r4, r5, r6, pc}
        HAL_UART_ErrorCallback(huart);
 8001d1e:	f000 fcd1 	bl	80026c4 <HAL_UART_ErrorCallback>
        huart->ErrorCode = HAL_UART_ERROR_NONE;
 8001d22:	63e5      	str	r5, [r4, #60]	; 0x3c
 8001d24:	bd70      	pop	{r4, r5, r6, pc}
  if(((isrflags & USART_SR_TXE) != RESET) && ((cr1its & USART_CR1_TXEIE) != RESET))
 8001d26:	0616      	lsls	r6, r2, #24
 8001d28:	d527      	bpl.n	8001d7a <HAL_UART_IRQHandler+0x11e>
 8001d2a:	060d      	lsls	r5, r1, #24
 8001d2c:	d525      	bpl.n	8001d7a <HAL_UART_IRQHandler+0x11e>
  if(huart->gState == HAL_UART_STATE_BUSY_TX)
 8001d2e:	f894 2039 	ldrb.w	r2, [r4, #57]	; 0x39
 8001d32:	2a21      	cmp	r2, #33	; 0x21
 8001d34:	d12f      	bne.n	8001d96 <HAL_UART_IRQHandler+0x13a>
    if(huart->Init.WordLength == UART_WORDLENGTH_9B)
 8001d36:	68a2      	ldr	r2, [r4, #8]
 8001d38:	f5b2 5f80 	cmp.w	r2, #4096	; 0x1000
 8001d3c:	6a22      	ldr	r2, [r4, #32]
 8001d3e:	d117      	bne.n	8001d70 <HAL_UART_IRQHandler+0x114>
      huart->Instance->DR = (uint16_t)(*tmp & (uint16_t)0x01FF);
 8001d40:	8811      	ldrh	r1, [r2, #0]
 8001d42:	f3c1 0108 	ubfx	r1, r1, #0, #9
 8001d46:	6059      	str	r1, [r3, #4]
      if(huart->Init.Parity == UART_PARITY_NONE)
 8001d48:	6921      	ldr	r1, [r4, #16]
 8001d4a:	b979      	cbnz	r1, 8001d6c <HAL_UART_IRQHandler+0x110>
        huart->pTxBuffPtr += 2U;
 8001d4c:	3202      	adds	r2, #2
        huart->pTxBuffPtr += 1U;
 8001d4e:	6222      	str	r2, [r4, #32]
    if(--huart->TxXferCount == 0U)
 8001d50:	8ce2      	ldrh	r2, [r4, #38]	; 0x26
 8001d52:	3a01      	subs	r2, #1
 8001d54:	b292      	uxth	r2, r2
 8001d56:	84e2      	strh	r2, [r4, #38]	; 0x26
 8001d58:	b9ea      	cbnz	r2, 8001d96 <HAL_UART_IRQHandler+0x13a>
      __HAL_UART_DISABLE_IT(huart, UART_IT_TXE);
 8001d5a:	68da      	ldr	r2, [r3, #12]
 8001d5c:	f022 0280 	bic.w	r2, r2, #128	; 0x80
 8001d60:	60da      	str	r2, [r3, #12]
      __HAL_UART_ENABLE_IT(huart, UART_IT_TC);
 8001d62:	68da      	ldr	r2, [r3, #12]
 8001d64:	f042 0240 	orr.w	r2, r2, #64	; 0x40
 8001d68:	60da      	str	r2, [r3, #12]
 8001d6a:	bd70      	pop	{r4, r5, r6, pc}
        huart->pTxBuffPtr += 1U;
 8001d6c:	3201      	adds	r2, #1
 8001d6e:	e7ee      	b.n	8001d4e <HAL_UART_IRQHandler+0xf2>
      huart->Instance->DR = (uint8_t)(*huart->pTxBuffPtr++ & (uint8_t)0x00FF);
 8001d70:	1c51      	adds	r1, r2, #1
 8001d72:	6221      	str	r1, [r4, #32]
 8001d74:	7812      	ldrb	r2, [r2, #0]
 8001d76:	605a      	str	r2, [r3, #4]
 8001d78:	e7ea      	b.n	8001d50 <HAL_UART_IRQHandler+0xf4>
  if(((isrflags & USART_SR_TC) != RESET) && ((cr1its & USART_CR1_TCIE) != RESET))
 8001d7a:	0650      	lsls	r0, r2, #25
 8001d7c:	d50b      	bpl.n	8001d96 <HAL_UART_IRQHandler+0x13a>
 8001d7e:	064a      	lsls	r2, r1, #25
 8001d80:	d509      	bpl.n	8001d96 <HAL_UART_IRQHandler+0x13a>
  __HAL_UART_DISABLE_IT(huart, UART_IT_TC);
 8001d82:	68da      	ldr	r2, [r3, #12]
  HAL_UART_TxCpltCallback(huart);
 8001d84:	4620      	mov	r0, r4
  __HAL_UART_DISABLE_IT(huart, UART_IT_TC);
 8001d86:	f022 0240 	bic.w	r2, r2, #64	; 0x40
 8001d8a:	60da      	str	r2, [r3, #12]
  huart->gState = HAL_UART_STATE_READY;
 8001d8c:	2320      	movs	r3, #32
 8001d8e:	f884 3039 	strb.w	r3, [r4, #57]	; 0x39
  HAL_UART_TxCpltCallback(huart);
 8001d92:	f000 fc67 	bl	8002664 <HAL_UART_TxCpltCallback>
 8001d96:	bd70      	pop	{r4, r5, r6, pc}
 8001d98:	08001d9d 	.word	0x08001d9d

08001d9c <UART_DMAAbortOnError>:
{
 8001d9c:	b508      	push	{r3, lr}
  huart->RxXferCount = 0x00U;
 8001d9e:	2300      	movs	r3, #0
  UART_HandleTypeDef* huart = ( UART_HandleTypeDef* )((DMA_HandleTypeDef* )hdma)->Parent;
 8001da0:	6a40      	ldr	r0, [r0, #36]	; 0x24
  huart->RxXferCount = 0x00U;
 8001da2:	85c3      	strh	r3, [r0, #46]	; 0x2e
  huart->TxXferCount = 0x00U;
 8001da4:	84c3      	strh	r3, [r0, #38]	; 0x26
  HAL_UART_ErrorCallback(huart);
 8001da6:	f000 fc8d 	bl	80026c4 <HAL_UART_ErrorCallback>
 8001daa:	bd08      	pop	{r3, pc}

08001dac <GPS_NMEA_init_simple>:


void GPS_NMEA_init_simple(GPS_NMEA_GLL_t *_data, RING_BUFFER_DATA *_buffer)	//	GPS_SetMessageOutput
{
	_data->buffer = _buffer;
	_data->fpos = 0;
 8001dac:	2300      	movs	r3, #0
 8001dae:	80c3      	strh	r3, [r0, #6]
	_data->nmea_state = GPS_START_CHAR_STATE;
 8001db0:	7103      	strb	r3, [r0, #4]
	_data->gpsInit_flag = true;
 8001db2:	2301      	movs	r3, #1
	_data->buffer = _buffer;
 8001db4:	6001      	str	r1, [r0, #0]
	_data->gpsInit_flag = true;
 8001db6:	7243      	strb	r3, [r0, #9]
 8001db8:	4770      	bx	lr
	...

08001dbc <ClrPOR>:
{
    HAL_GPIO_WritePin(RESET_GPIOx, RESET_GPIO_Pin, GPIO_PIN_SET);
}
inline static void ClrPOR(void)
{
    HAL_GPIO_WritePin(RESET_GPIOx, RESET_GPIO_Pin, GPIO_PIN_RESET);
 8001dbc:	4b02      	ldr	r3, [pc, #8]	; (8001dc8 <ClrPOR+0xc>)
 8001dbe:	2200      	movs	r2, #0
 8001dc0:	8819      	ldrh	r1, [r3, #0]
 8001dc2:	6858      	ldr	r0, [r3, #4]
 8001dc4:	f7fe bcc8 	b.w	8000758 <HAL_GPIO_WritePin>
 8001dc8:	20000028 	.word	0x20000028

08001dcc <SetPOR>:
    HAL_GPIO_WritePin(RESET_GPIOx, RESET_GPIO_Pin, GPIO_PIN_SET);
 8001dcc:	4b02      	ldr	r3, [pc, #8]	; (8001dd8 <SetPOR+0xc>)
 8001dce:	2201      	movs	r2, #1
 8001dd0:	8819      	ldrh	r1, [r3, #0]
 8001dd2:	6858      	ldr	r0, [r3, #4]
 8001dd4:	f7fe bcc0 	b.w	8000758 <HAL_GPIO_WritePin>
 8001dd8:	20000028 	.word	0x20000028

08001ddc <SPI_CS_pin>:
    HAL_GPIO_WritePin(SPI_CS_GPIOx, SPI_CS_GPIO_Pin, _PinState);
 8001ddc:	4b02      	ldr	r3, [pc, #8]	; (8001de8 <SPI_CS_pin+0xc>)
 8001dde:	4602      	mov	r2, r0
 8001de0:	8919      	ldrh	r1, [r3, #8]
 8001de2:	68d8      	ldr	r0, [r3, #12]
 8001de4:	f7fe bcb8 	b.w	8000758 <HAL_GPIO_WritePin>
 8001de8:	20000028 	.word	0x20000028

08001dec <bSpiTransfer>:
{
 8001dec:	b57f      	push	{r0, r1, r2, r3, r4, r5, r6, lr}
    uint8_t dataR = 0;
 8001dee:	2300      	movs	r3, #0
 8001df0:	aa06      	add	r2, sp, #24
 8001df2:	f802 3d01 	strb.w	r3, [r2, #-1]!
    HAL_SPI_TransmitReceive(hspi_RFM98W, &dat, &dataR, 1, SPI_TIMEOUT);
 8001df6:	2332      	movs	r3, #50	; 0x32
{
 8001df8:	f88d 000f 	strb.w	r0, [sp, #15]
    HAL_SPI_TransmitReceive(hspi_RFM98W, &dat, &dataR, 1, SPI_TIMEOUT);
 8001dfc:	4806      	ldr	r0, [pc, #24]	; (8001e18 <bSpiTransfer+0x2c>)
 8001dfe:	9300      	str	r3, [sp, #0]
 8001e00:	f10d 010f 	add.w	r1, sp, #15
 8001e04:	2301      	movs	r3, #1
 8001e06:	6900      	ldr	r0, [r0, #16]
 8001e08:	f7ff fbc3 	bl	8001592 <HAL_SPI_TransmitReceive>
}
 8001e0c:	f89d 0017 	ldrb.w	r0, [sp, #23]
 8001e10:	b007      	add	sp, #28
 8001e12:	f85d fb04 	ldr.w	pc, [sp], #4
 8001e16:	bf00      	nop
 8001e18:	20000028 	.word	0x20000028

08001e1c <bSpiRead>:
{
 8001e1c:	b510      	push	{r4, lr}
 8001e1e:	4604      	mov	r4, r0
    SPI_CS_pin(GPIO_PIN_RESET);
 8001e20:	2000      	movs	r0, #0
 8001e22:	f7ff ffdb 	bl	8001ddc <SPI_CS_pin>
    bSpiTransfer(addr);
 8001e26:	4620      	mov	r0, r4
 8001e28:	f7ff ffe0 	bl	8001dec <bSpiTransfer>
    tmp = bSpiTransfer(0xFF);
 8001e2c:	20ff      	movs	r0, #255	; 0xff
 8001e2e:	f7ff ffdd 	bl	8001dec <bSpiTransfer>
 8001e32:	4604      	mov	r4, r0
    SPI_CS_pin(GPIO_PIN_SET);
 8001e34:	2001      	movs	r0, #1
 8001e36:	f7ff ffd1 	bl	8001ddc <SPI_CS_pin>
}
 8001e3a:	4620      	mov	r0, r4
 8001e3c:	bd10      	pop	{r4, pc}

08001e3e <vSpiWrite>:
{
 8001e3e:	b510      	push	{r4, lr}
 8001e40:	4604      	mov	r4, r0
    SPI_CS_pin(GPIO_PIN_RESET);
 8001e42:	2000      	movs	r0, #0
 8001e44:	f7ff ffca 	bl	8001ddc <SPI_CS_pin>
    bSpiTransfer((byte)(dat>>8)|0x80);
 8001e48:	0a20      	lsrs	r0, r4, #8
 8001e4a:	f040 0080 	orr.w	r0, r0, #128	; 0x80
 8001e4e:	f7ff ffcd 	bl	8001dec <bSpiTransfer>
    bSpiTransfer((byte)dat);
 8001e52:	b2e0      	uxtb	r0, r4
 8001e54:	f7ff ffca 	bl	8001dec <bSpiTransfer>
}
 8001e58:	e8bd 4010 	ldmia.w	sp!, {r4, lr}
    SPI_CS_pin(GPIO_PIN_SET);
 8001e5c:	2001      	movs	r0, #1
 8001e5e:	f7ff bfbd 	b.w	8001ddc <SPI_CS_pin>

08001e62 <vSpiBurstWrite.constprop.2>:
static void vSpiBurstWrite(byte addr, byte ptr[], byte length)
 8001e62:	b570      	push	{r4, r5, r6, lr}
 8001e64:	4604      	mov	r4, r0
 8001e66:	460e      	mov	r6, r1
    SPI_CS_pin(GPIO_PIN_RESET);
 8001e68:	2000      	movs	r0, #0
 8001e6a:	f7ff ffb7 	bl	8001ddc <SPI_CS_pin>
    bSpiTransfer(addr|0x80);
 8001e6e:	2080      	movs	r0, #128	; 0x80
 8001e70:	f7ff ffbc 	bl	8001dec <bSpiTransfer>
 8001e74:	3e01      	subs	r6, #1
 8001e76:	1e65      	subs	r5, r4, #1
 8001e78:	4434      	add	r4, r6
    for(i=0; i<length; i++)
 8001e7a:	42a5      	cmp	r5, r4
 8001e7c:	d104      	bne.n	8001e88 <vSpiBurstWrite.constprop.2+0x26>
    SPI_CS_pin(GPIO_PIN_SET);
 8001e7e:	2001      	movs	r0, #1
}
 8001e80:	e8bd 4070 	ldmia.w	sp!, {r4, r5, r6, lr}
    SPI_CS_pin(GPIO_PIN_SET);
 8001e84:	f7ff bfaa 	b.w	8001ddc <SPI_CS_pin>
        bSpiTransfer(ptr[i]);
 8001e88:	f815 0f01 	ldrb.w	r0, [r5, #1]!
 8001e8c:	f7ff ffae 	bl	8001dec <bSpiTransfer>
 8001e90:	e7f3      	b.n	8001e7a <vSpiBurstWrite.constprop.2+0x18>

08001e92 <RFM98W_LoRa_vGoStandby>:
{
 8001e92:	b508      	push	{r3, lr}
    tmp = bSpiRead(RegOpMode);
 8001e94:	2001      	movs	r0, #1
 8001e96:	f7ff ffc1 	bl	8001e1c <bSpiRead>
}
 8001e9a:	e8bd 4008 	ldmia.w	sp!, {r3, lr}
    tmp&= MODE_MASK;
 8001e9e:	f000 00f8 	and.w	r0, r0, #248	; 0xf8
    vSpiWrite(((word)RegOpMode<<8)+tmp);
 8001ea2:	f440 7080 	orr.w	r0, r0, #256	; 0x100
 8001ea6:	f040 0001 	orr.w	r0, r0, #1
 8001eaa:	f7ff bfc8 	b.w	8001e3e <vSpiWrite>

08001eae <RFM98W_LoRa_vConfig>:
{
 8001eae:	b570      	push	{r4, r5, r6, lr}
 8001eb0:	4604      	mov	r4, r0
            ClrPOR();   //  SetPOR();   //  Blad w plikach bilbiotecznych "HopeRFLib"
 8001eb2:	f7ff ff83 	bl	8001dbc <ClrPOR>
            _delay_ms(1); // _delay_us(200);                //at least 100us for reset
 8001eb6:	2001      	movs	r0, #1
 8001eb8:	f7fe f996 	bl	80001e8 <HAL_Delay>
            SetPOR();   //  ClrPOR();
 8001ebc:	f7ff ff86 	bl	8001dcc <SetPOR>
    _delay_ms(6);                       //wait for ready
 8001ec0:	2006      	movs	r0, #6
 8001ec2:	f7fe f991 	bl	80001e8 <HAL_Delay>
    tmp = bSpiRead(RegOpMode);
 8001ec6:	2001      	movs	r0, #1
 8001ec8:	f7ff ffa8 	bl	8001e1c <bSpiRead>
 8001ecc:	4605      	mov	r5, r0
    vSpiWrite(((word)RegOpMode<<8)+tmp);
 8001ece:	f000 00f8 	and.w	r0, r0, #248	; 0xf8
 8001ed2:	f500 7080 	add.w	r0, r0, #256	; 0x100
 8001ed6:	f7ff ffb2 	bl	8001e3e <vSpiWrite>
    if(_data->Modulation==LORA)
 8001eda:	7863      	ldrb	r3, [r4, #1]
    tmp &= 0x7F;
 8001edc:	f005 0078 	and.w	r0, r5, #120	; 0x78
    if(_data->Modulation==LORA)
 8001ee0:	2b03      	cmp	r3, #3
    tmp |= 0x80;
 8001ee2:	bf08      	it	eq
 8001ee4:	f040 0080 	orreq.w	r0, r0, #128	; 0x80
    vSpiWrite(((word)RegOpMode<<8)+tmp);
 8001ee8:	f500 7080 	add.w	r0, r0, #256	; 0x100
 8001eec:	f7ff ffa7 	bl	8001e3e <vSpiWrite>
    RFM98W_LoRa_vGoStandby();
 8001ef0:	f7ff ffcf 	bl	8001e92 <RFM98W_LoRa_vGoStandby>
    vSpiWrite(((word)RegFrMsb<<8)+_data->FrequencyValue.freq.FreqH);
 8001ef4:	f894 002a 	ldrb.w	r0, [r4, #42]	; 0x2a
 8001ef8:	f500 60c0 	add.w	r0, r0, #1536	; 0x600
 8001efc:	f7ff ff9f 	bl	8001e3e <vSpiWrite>
    vSpiWrite(((word)RegFrMid<<8)+_data->FrequencyValue.freq.FreqM);
 8001f00:	f894 0029 	ldrb.w	r0, [r4, #41]	; 0x29
 8001f04:	f500 60e0 	add.w	r0, r0, #1792	; 0x700
 8001f08:	f7ff ff99 	bl	8001e3e <vSpiWrite>
    vSpiWrite(((word)RegFrLsb<<8)+_data->FrequencyValue.freq.FreqL);
 8001f0c:	f894 0028 	ldrb.w	r0, [r4, #40]	; 0x28
 8001f10:	f500 6000 	add.w	r0, r0, #2048	; 0x800
 8001f14:	f7ff ff93 	bl	8001e3e <vSpiWrite>
    i = bSpiRead(RegPaConfig);
 8001f18:	2009      	movs	r0, #9
 8001f1a:	f7ff ff7f 	bl	8001e1c <bSpiRead>
    if(_data->OutputPower>=20)
 8001f1e:	7a23      	ldrb	r3, [r4, #8]
    i &= 0x70;
 8001f20:	f000 0070 	and.w	r0, r0, #112	; 0x70
    if(_data->OutputPower>=20)
 8001f24:	2b13      	cmp	r3, #19
 8001f26:	f240 80c3 	bls.w	80020b0 <RFM98W_LoRa_vConfig+0x202>
    { i |= 0x0F; j = 0x87; }
 8001f2a:	f040 000f 	orr.w	r0, r0, #15
    { i |= (_data->OutputPower-3-2); j = 0x87; }
 8001f2e:	2587      	movs	r5, #135	; 0x87
    vSpiWrite(((word)RegPaConfig<<8)+0x80+i);   //PA_BOOST
 8001f30:	f500 6018 	add.w	r0, r0, #2432	; 0x980
 8001f34:	f7ff ff83 	bl	8001e3e <vSpiWrite>
    switch(_data->COB)
 8001f38:	78a3      	ldrb	r3, [r4, #2]
 8001f3a:	2b01      	cmp	r3, #1
        case RFM93: vSpiWrite(((word)RegPaDac_2<<8)+j); break;
 8001f3c:	bf94      	ite	ls
 8001f3e:	f505 40b4 	addls.w	r0, r5, #23040	; 0x5a00
        default:    vSpiWrite(((word)RegPaDac<<8)+j); break;
 8001f42:	f505 409a 	addhi.w	r0, r5, #19712	; 0x4d00
 8001f46:	f7ff ff7a 	bl	8001e3e <vSpiWrite>
    j = bSpiRead(RegPaRamp);
 8001f4a:	200a      	movs	r0, #10
 8001f4c:	f7ff ff66 	bl	8001e1c <bSpiRead>
    SymbolRate = SymbolRate/4;          // 1/4 ramping
 8001f50:	f44f 627a 	mov.w	r2, #4000	; 0xfa0
 8001f54:	6923      	ldr	r3, [r4, #16]
    j&= 0x0F;
 8001f56:	f000 000f 	and.w	r0, r0, #15
    SymbolRate = SymbolRate/4;          // 1/4 ramping
 8001f5a:	fbb3 f3f2 	udiv	r3, r3, r2
    if(SymbolRate<=10)
 8001f5e:	2b0a      	cmp	r3, #10
 8001f60:	f240 80b3 	bls.w	80020ca <RFM98W_LoRa_vConfig+0x21c>
    else if(SymbolRate<=12)
 8001f64:	2b0c      	cmp	r3, #12
 8001f66:	f240 80b2 	bls.w	80020ce <RFM98W_LoRa_vConfig+0x220>
    else if(SymbolRate<=15)
 8001f6a:	2b0f      	cmp	r3, #15
 8001f6c:	f240 80b1 	bls.w	80020d2 <RFM98W_LoRa_vConfig+0x224>
    else if(SymbolRate<=20)
 8001f70:	2b14      	cmp	r3, #20
 8001f72:	f240 80b0 	bls.w	80020d6 <RFM98W_LoRa_vConfig+0x228>
    else if(SymbolRate<=25)
 8001f76:	2b19      	cmp	r3, #25
 8001f78:	f240 80af 	bls.w	80020da <RFM98W_LoRa_vConfig+0x22c>
    else if(SymbolRate<=31)
 8001f7c:	2b1f      	cmp	r3, #31
 8001f7e:	f240 80ae 	bls.w	80020de <RFM98W_LoRa_vConfig+0x230>
    else if(SymbolRate<=40)
 8001f82:	2b28      	cmp	r3, #40	; 0x28
 8001f84:	f240 80ad 	bls.w	80020e2 <RFM98W_LoRa_vConfig+0x234>
    else if(SymbolRate<=50)
 8001f88:	2b32      	cmp	r3, #50	; 0x32
 8001f8a:	f240 80ac 	bls.w	80020e6 <RFM98W_LoRa_vConfig+0x238>
    else if(SymbolRate<=62)
 8001f8e:	2b3e      	cmp	r3, #62	; 0x3e
 8001f90:	f240 80ab 	bls.w	80020ea <RFM98W_LoRa_vConfig+0x23c>
    else if(SymbolRate<=100)
 8001f94:	2b64      	cmp	r3, #100	; 0x64
 8001f96:	f240 80aa 	bls.w	80020ee <RFM98W_LoRa_vConfig+0x240>
    else if(SymbolRate<=125)
 8001f9a:	2b7d      	cmp	r3, #125	; 0x7d
 8001f9c:	f240 80a9 	bls.w	80020f2 <RFM98W_LoRa_vConfig+0x244>
    else if(SymbolRate<=250)
 8001fa0:	2bfa      	cmp	r3, #250	; 0xfa
 8001fa2:	f240 80a8 	bls.w	80020f6 <RFM98W_LoRa_vConfig+0x248>
    else if(SymbolRate<=500)
 8001fa6:	f5b3 7ffa 	cmp.w	r3, #500	; 0x1f4
 8001faa:	f240 80a6 	bls.w	80020fa <RFM98W_LoRa_vConfig+0x24c>
    else if(SymbolRate<=1000)
 8001fae:	f5b3 7f7a 	cmp.w	r3, #1000	; 0x3e8
 8001fb2:	f240 80a4 	bls.w	80020fe <RFM98W_LoRa_vConfig+0x250>
        return 0x0F;                    //10us
 8001fb6:	f5b3 6ffa 	cmp.w	r3, #2000	; 0x7d0
 8001fba:	bf8c      	ite	hi
 8001fbc:	2300      	movhi	r3, #0
 8001fbe:	2301      	movls	r3, #1
    vSpiWrite(((word)RegPaRamp<<8)+j);
 8001fc0:	4318      	orrs	r0, r3
 8001fc2:	f500 6020 	add.w	r0, r0, #2560	; 0xa00
 8001fc6:	f7ff ff3a 	bl	8001e3e <vSpiWrite>
    vSpiWrite(((word)RegOcp<<8)+0x0F);          //Disable Ocp
 8001fca:	f640 300f 	movw	r0, #2831	; 0xb0f
 8001fce:	f7ff ff36 	bl	8001e3e <vSpiWrite>
    i = bSpiRead(RegOpMode);
 8001fd2:	2001      	movs	r0, #1
 8001fd4:	f7ff ff22 	bl	8001e1c <bSpiRead>
 8001fd8:	4605      	mov	r5, r0
    j = bSpiRead(RegPaRamp);        //for RFM95/96/97/98
 8001fda:	200a      	movs	r0, #10
 8001fdc:	f7ff ff1e 	bl	8001e1c <bSpiRead>
    if(_data->Modulation==LORA)
 8001fe0:	7863      	ldrb	r3, [r4, #1]
    j = bSpiRead(RegPaRamp);        //for RFM95/96/97/98
 8001fe2:	4606      	mov	r6, r0
    if(_data->Modulation==LORA)
 8001fe4:	2b03      	cmp	r3, #3
 8001fe6:	78a2      	ldrb	r2, [r4, #2]
 8001fe8:	f040 80b2 	bne.w	8002150 <RFM98W_LoRa_vConfig+0x2a2>
        switch(_data->COB)
 8001fec:	2a03      	cmp	r2, #3
        i &= 0x87;
 8001fee:	f005 0087 	and.w	r0, r5, #135	; 0x87
        switch(_data->COB)
 8001ff2:	d001      	beq.n	8001ff8 <RFM98W_LoRa_vConfig+0x14a>
 8001ff4:	2a05      	cmp	r2, #5
 8001ff6:	d101      	bne.n	8001ffc <RFM98W_LoRa_vConfig+0x14e>
            case RFM98: i |= 0x08; break;
 8001ff8:	f040 0008 	orr.w	r0, r0, #8
        vSpiWrite(((word)RegOpMode<<8)+i);
 8001ffc:	f500 7080 	add.w	r0, r0, #256	; 0x100
 8002000:	f7ff ff1d 	bl	8001e3e <vSpiWrite>
        i = bSpiRead(0x31);         //SetNbTrigPeaks
 8002004:	2031      	movs	r0, #49	; 0x31
 8002006:	f7ff ff09 	bl	8001e1c <bSpiRead>
        if(_data->SFSel==SF6)
 800200a:	f894 3023 	ldrb.w	r3, [r4, #35]	; 0x23
        i &= 0xF8;
 800200e:	f000 00f8 	and.w	r0, r0, #248	; 0xf8
            vSpiWrite(0x3100+i);
 8002012:	f440 5044 	orr.w	r0, r0, #12544	; 0x3100
        if(_data->SFSel==SF6)
 8002016:	2b00      	cmp	r3, #0
 8002018:	d173      	bne.n	8002102 <RFM98W_LoRa_vConfig+0x254>
            vSpiWrite(0x3100+i);
 800201a:	f040 0005 	orr.w	r0, r0, #5
 800201e:	f7ff ff0e 	bl	8001e3e <vSpiWrite>
            vSpiWrite(0x3700+0x0C);
 8002022:	f243 700c 	movw	r0, #14092	; 0x370c
 8002026:	f7ff ff0a 	bl	8001e3e <vSpiWrite>
            _data->FixedPktLength = true;           //SF6 must be ImplicitHeaderMode
 800202a:	2301      	movs	r3, #1
 800202c:	7323      	strb	r3, [r4, #12]
        switch(_data->COB)
 800202e:	78a3      	ldrb	r3, [r4, #2]
 8002030:	f894 2033 	ldrb.w	r2, [r4, #51]	; 0x33
 8002034:	2b01      	cmp	r3, #1
 8002036:	7b21      	ldrb	r1, [r4, #12]
 8002038:	f894 3032 	ldrb.w	r3, [r4, #50]	; 0x32
 800203c:	d866      	bhi.n	800210c <RFM98W_LoRa_vConfig+0x25e>
                if(_data->BWValue>6)
 800203e:	2b06      	cmp	r3, #6
                    tmp = 0;
 8002040:	bf92      	itee	ls
 8002042:	2300      	movls	r3, #0
                    tmp = _data->BWValue - 7;
 8002044:	3b07      	subhi	r3, #7
 8002046:	b2db      	uxtbhi	r3, r3
                tmp <<= 6;                  //BandWidth
 8002048:	0198      	lsls	r0, r3, #6
                tmp |= (_data->CRValue<<3);
 800204a:	ea40 00c2 	orr.w	r0, r0, r2, lsl #3
 800204e:	f000 00f8 	and.w	r0, r0, #248	; 0xf8
                if(_data->FixedPktLength)           //ImplicitHeader
 8002052:	b109      	cbz	r1, 8002058 <RFM98W_LoRa_vConfig+0x1aa>
                    tmp |= 0x04;
 8002054:	f040 0004 	orr.w	r0, r0, #4
                if(!_data->CrcDisable)              //
 8002058:	7b63      	ldrb	r3, [r4, #13]
 800205a:	b90b      	cbnz	r3, 8002060 <RFM98W_LoRa_vConfig+0x1b2>
                    tmp |= 0x02;
 800205c:	f040 0002 	orr.w	r0, r0, #2
                if(_data->RsOptimize)               //mandated for when the symbol length exceeds 16ms
 8002060:	f894 3034 	ldrb.w	r3, [r4, #52]	; 0x34
 8002064:	b10b      	cbz	r3, 800206a <RFM98W_LoRa_vConfig+0x1bc>
                    tmp |= 0x01;
 8002066:	f040 0001 	orr.w	r0, r0, #1
                vSpiWrite(((word)RegModemConfig1<<8)+tmp);
 800206a:	f500 50e8 	add.w	r0, r0, #7424	; 0x1d00
 800206e:	f7ff fee6 	bl	8001e3e <vSpiWrite>
                tmp = (_data->SFValue<<4);          //SF rate
 8002072:	f894 0031 	ldrb.w	r0, [r4, #49]	; 0x31
 8002076:	0100      	lsls	r0, r0, #4
 8002078:	b2c0      	uxtb	r0, r0
                vSpiWrite(((word)RegModemConfig2<<8)+tmp);
 800207a:	f440 50f0 	orr.w	r0, r0, #7680	; 0x1e00
 800207e:	f040 0007 	orr.w	r0, r0, #7
                vSpiWrite(((word)RegModemConfig3<<8)+tmp);
 8002082:	f7ff fedc 	bl	8001e3e <vSpiWrite>
        vSpiWrite(((word)RegSymbTimeoutLsb<<8)+0xFF);   //RegSymbTimeoutLsb Timeout = 0x3FF(Max)
 8002086:	f641 70ff 	movw	r0, #8191	; 0x1fff
 800208a:	f7ff fed8 	bl	8001e3e <vSpiWrite>
        vSpiWrite(((word)RegPreambleMsb_LR<<8)+(byte)(_data->PreambleLength>>8));
 800208e:	8960      	ldrh	r0, [r4, #10]
 8002090:	0a00      	lsrs	r0, r0, #8
 8002092:	f500 5000 	add.w	r0, r0, #8192	; 0x2000
 8002096:	f7ff fed2 	bl	8001e3e <vSpiWrite>
        vSpiWrite(((word)RegPreambleLsb_LR<<8)+(byte)_data->PreambleLength);
 800209a:	7aa0      	ldrb	r0, [r4, #10]
 800209c:	f500 5004 	add.w	r0, r0, #8448	; 0x2100
 80020a0:	f7ff fecd 	bl	8001e3e <vSpiWrite>
        vSpiWrite(((word)RegDioMapping2<<8)+0x40);                      //RegDioMapping2    DIO5=00(ModeReady), DIO4=01(PllLock)
 80020a4:	f244 1040 	movw	r0, #16704	; 0x4140
}
 80020a8:	e8bd 4070 	ldmia.w	sp!, {r4, r5, r6, lr}
        vSpiWrite(((word)RegDioMapping2<<8)+0x61);  //DIO4 PllLock / DIO5 Data / PreambleDetect
 80020ac:	f7ff bec7 	b.w	8001e3e <vSpiWrite>
    else if(_data->OutputPower>17)
 80020b0:	2b11      	cmp	r3, #17
 80020b2:	d903      	bls.n	80020bc <RFM98W_LoRa_vConfig+0x20e>
    { i |= (_data->OutputPower-3-2); j = 0x87; }
 80020b4:	3b05      	subs	r3, #5
 80020b6:	4318      	orrs	r0, r3
 80020b8:	b2c0      	uxtb	r0, r0
 80020ba:	e738      	b.n	8001f2e <RFM98W_LoRa_vConfig+0x80>
    else if(_data->OutputPower>=2)
 80020bc:	2b01      	cmp	r3, #1
    { i |= (_data->OutputPower-2); j = 0x84; }
 80020be:	bf82      	ittt	hi
 80020c0:	3b02      	subhi	r3, #2
 80020c2:	4318      	orrhi	r0, r3
 80020c4:	b2c0      	uxtbhi	r0, r0
    { i |= 0; j = 0x84; }
 80020c6:	2584      	movs	r5, #132	; 0x84
 80020c8:	e732      	b.n	8001f30 <RFM98W_LoRa_vConfig+0x82>
        return 0x0F;                    //10us
 80020ca:	230f      	movs	r3, #15
 80020cc:	e778      	b.n	8001fc0 <RFM98W_LoRa_vConfig+0x112>
        return 0x0E;                    //12us
 80020ce:	230e      	movs	r3, #14
 80020d0:	e776      	b.n	8001fc0 <RFM98W_LoRa_vConfig+0x112>
        return 0x0D;                    //15us
 80020d2:	230d      	movs	r3, #13
 80020d4:	e774      	b.n	8001fc0 <RFM98W_LoRa_vConfig+0x112>
        return 0x0C;                    //20us
 80020d6:	230c      	movs	r3, #12
 80020d8:	e772      	b.n	8001fc0 <RFM98W_LoRa_vConfig+0x112>
        return 0x0B;                    //25us
 80020da:	230b      	movs	r3, #11
 80020dc:	e770      	b.n	8001fc0 <RFM98W_LoRa_vConfig+0x112>
        return 0x0A;                    //31us
 80020de:	230a      	movs	r3, #10
 80020e0:	e76e      	b.n	8001fc0 <RFM98W_LoRa_vConfig+0x112>
        return 0x09;                    //40us
 80020e2:	2309      	movs	r3, #9
 80020e4:	e76c      	b.n	8001fc0 <RFM98W_LoRa_vConfig+0x112>
        return 0x08;                    //50us
 80020e6:	2308      	movs	r3, #8
 80020e8:	e76a      	b.n	8001fc0 <RFM98W_LoRa_vConfig+0x112>
        return 0x07;                    //62us
 80020ea:	2307      	movs	r3, #7
 80020ec:	e768      	b.n	8001fc0 <RFM98W_LoRa_vConfig+0x112>
        return 0x06;                    //100us
 80020ee:	2306      	movs	r3, #6
 80020f0:	e766      	b.n	8001fc0 <RFM98W_LoRa_vConfig+0x112>
        return 0x05;                    //125us
 80020f2:	2305      	movs	r3, #5
 80020f4:	e764      	b.n	8001fc0 <RFM98W_LoRa_vConfig+0x112>
        return 0x04;                    //250us
 80020f6:	2304      	movs	r3, #4
 80020f8:	e762      	b.n	8001fc0 <RFM98W_LoRa_vConfig+0x112>
        return 0x03;                    //500us
 80020fa:	2303      	movs	r3, #3
 80020fc:	e760      	b.n	8001fc0 <RFM98W_LoRa_vConfig+0x112>
        return 0x02;                    //1000us
 80020fe:	2302      	movs	r3, #2
 8002100:	e75e      	b.n	8001fc0 <RFM98W_LoRa_vConfig+0x112>
            vSpiWrite(0x3100+i);
 8002102:	f040 0003 	orr.w	r0, r0, #3
 8002106:	f7ff fe9a 	bl	8001e3e <vSpiWrite>
 800210a:	e790      	b.n	800202e <RFM98W_LoRa_vConfig+0x180>
                tmp = (_data->BWValue<<4) + (_data->CRValue<<1);
 800210c:	0050      	lsls	r0, r2, #1
 800210e:	eb00 1003 	add.w	r0, r0, r3, lsl #4
 8002112:	b2c0      	uxtb	r0, r0
                if(_data->FixedPktLength)
 8002114:	b109      	cbz	r1, 800211a <RFM98W_LoRa_vConfig+0x26c>
                    tmp |= 0x01;
 8002116:	f040 0001 	orr.w	r0, r0, #1
                vSpiWrite(((word)RegModemConfig1<<8)+tmp);
 800211a:	f500 50e8 	add.w	r0, r0, #7424	; 0x1d00
 800211e:	f7ff fe8e 	bl	8001e3e <vSpiWrite>
                tmp = (_data->SFValue<<4);
 8002122:	f894 0031 	ldrb.w	r0, [r4, #49]	; 0x31
                if(!_data->CrcDisable)
 8002126:	7b63      	ldrb	r3, [r4, #13]
                tmp = (_data->SFValue<<4);
 8002128:	0100      	lsls	r0, r0, #4
 800212a:	b2c0      	uxtb	r0, r0
                if(!_data->CrcDisable)
 800212c:	b90b      	cbnz	r3, 8002132 <RFM98W_LoRa_vConfig+0x284>
                    tmp |= 0x04;
 800212e:	f040 0004 	orr.w	r0, r0, #4
                tmp += 0x03;
 8002132:	3003      	adds	r0, #3
                vSpiWrite(((word)RegModemConfig2<<8)+tmp);
 8002134:	b2c0      	uxtb	r0, r0
 8002136:	f500 50f0 	add.w	r0, r0, #7680	; 0x1e00
 800213a:	f7ff fe80 	bl	8001e3e <vSpiWrite>
                if(_data->RsOptimize)           //mandated for when the symbol length exceeds 16ms
 800213e:	f894 3034 	ldrb.w	r3, [r4, #52]	; 0x34
                    tmp |= 0x08;
 8002142:	2b00      	cmp	r3, #0
 8002144:	bf0c      	ite	eq
 8002146:	2004      	moveq	r0, #4
 8002148:	200c      	movne	r0, #12
                vSpiWrite(((word)RegModemConfig3<<8)+tmp);
 800214a:	f500 5018 	add.w	r0, r0, #9728	; 0x2600
 800214e:	e798      	b.n	8002082 <RFM98W_LoRa_vConfig+0x1d4>
        switch(_data->COB)
 8002150:	2a01      	cmp	r2, #1
 8002152:	f200 8089 	bhi.w	8002268 <RFM98W_LoRa_vConfig+0x3ba>
                i &= MOUDLE_MASK_2;
 8002156:	f005 0587 	and.w	r5, r5, #135	; 0x87
                switch(_data->Modulation)
 800215a:	2b00      	cmp	r3, #0
 800215c:	d07e      	beq.n	800225c <RFM98W_LoRa_vConfig+0x3ae>
 800215e:	2b02      	cmp	r3, #2
 8002160:	d07f      	beq.n	8002262 <RFM98W_LoRa_vConfig+0x3b4>
        vSpiWrite(((word)RegOpMode<<8)+i);
 8002162:	f505 7080 	add.w	r0, r5, #256	; 0x100
 8002166:	f7ff fe6a 	bl	8001e3e <vSpiWrite>
        vSpiWrite(((word)RegPaRamp<<8)+j);
 800216a:	f506 6020 	add.w	r0, r6, #2560	; 0xa00
 800216e:	b280      	uxth	r0, r0
 8002170:	f7ff fe65 	bl	8001e3e <vSpiWrite>
        vSpiWrite(((word)RegBitrateMsb<<8)+(byte)(_data->BitRateValue>>8));
 8002174:	8da0      	ldrh	r0, [r4, #44]	; 0x2c
 8002176:	0a00      	lsrs	r0, r0, #8
 8002178:	f500 7000 	add.w	r0, r0, #512	; 0x200
 800217c:	f7ff fe5f 	bl	8001e3e <vSpiWrite>
        vSpiWrite(((word)RegBitrateLsb<<8)+(byte)_data->BitRateValue);
 8002180:	f894 002c 	ldrb.w	r0, [r4, #44]	; 0x2c
 8002184:	f500 7040 	add.w	r0, r0, #768	; 0x300
 8002188:	f7ff fe59 	bl	8001e3e <vSpiWrite>
        vSpiWrite(((word)RegFdevMsb<<8)+(((byte)(_data->DevationValue>>8))&0x3F));
 800218c:	8de0      	ldrh	r0, [r4, #46]	; 0x2e
 800218e:	f3c0 2005 	ubfx	r0, r0, #8, #6
 8002192:	f500 6080 	add.w	r0, r0, #1024	; 0x400
 8002196:	f7ff fe52 	bl	8001e3e <vSpiWrite>
        vSpiWrite(((word)RegFdevLsb<<8)+(byte)(_data->DevationValue&0xFF));
 800219a:	f894 002e 	ldrb.w	r0, [r4, #46]	; 0x2e
 800219e:	f500 60a0 	add.w	r0, r0, #1280	; 0x500
 80021a2:	f7ff fe4c 	bl	8001e3e <vSpiWrite>
        vSpiWrite(((word)RegRxConfig<<8)+AGC_ON+RX_TRIGGER);
 80021a6:	f640 500e 	movw	r0, #3342	; 0xd0e
 80021aa:	f7ff fe48 	bl	8001e3e <vSpiWrite>
        vSpiWrite(((word)RegRxBw<<8)+_data->BandWidthValue);
 80021ae:	f894 0030 	ldrb.w	r0, [r4, #48]	; 0x30
 80021b2:	f500 5090 	add.w	r0, r0, #4608	; 0x1200
 80021b6:	f7ff fe42 	bl	8001e3e <vSpiWrite>
        vSpiWrite(((word)RegOokPeak<<8)+0x20+(0x02<<3)+0x00);
 80021ba:	f241 4030 	movw	r0, #5168	; 0x1430
 80021be:	f7ff fe3e 	bl	8001e3e <vSpiWrite>
        vSpiWrite(((word)RegPreambleDetect<<8)+PREAMBLE_DECT_ON+PREAMBLE_DECT_3BYTE);
 80021c2:	f44f 50fe 	mov.w	r0, #8128	; 0x1fc0
 80021c6:	f7ff fe3a 	bl	8001e3e <vSpiWrite>
        vSpiWrite(((word)RegPreambleMsb<<8)+(byte)(_data->PreambleLength>>8));
 80021ca:	8960      	ldrh	r0, [r4, #10]
 80021cc:	0a00      	lsrs	r0, r0, #8
 80021ce:	f500 5014 	add.w	r0, r0, #9472	; 0x2500
 80021d2:	f7ff fe34 	bl	8001e3e <vSpiWrite>
        vSpiWrite(((word)RegPreambleLsb<<8)+(byte)_data->PreambleLength);
 80021d6:	7aa0      	ldrb	r0, [r4, #10]
 80021d8:	f500 5018 	add.w	r0, r0, #9728	; 0x2600
 80021dc:	f7ff fe2f 	bl	8001e3e <vSpiWrite>
        vSpiWrite(((word)RegOsc<<8)+0x07);          //Close OscClk Output
 80021e0:	f242 4007 	movw	r0, #9223	; 0x2407
 80021e4:	f7ff fe2b 	bl	8001e3e <vSpiWrite>
        if(_data->SyncLength==0)
 80021e8:	7ea0      	ldrb	r0, [r4, #26]
 80021ea:	b108      	cbz	r0, 80021f0 <RFM98W_LoRa_vConfig+0x342>
            sync = _data->SyncLength-1;
 80021ec:	3801      	subs	r0, #1
 80021ee:	b2c0      	uxtb	r0, r0
        vSpiWrite(((word)RegSyncConfig<<8)+AUTO_RST_RX_ONwPLL+SYNC_ON+(sync&0x07));
 80021f0:	f000 0007 	and.w	r0, r0, #7
 80021f4:	f500 501e 	add.w	r0, r0, #10112	; 0x2780
 80021f8:	3010      	adds	r0, #16
 80021fa:	f7ff fe20 	bl	8001e3e <vSpiWrite>
 80021fe:	f44f 5520 	mov.w	r5, #10240	; 0x2800
 8002202:	f104 061b 	add.w	r6, r4, #27
            vSpiWrite(((word)(RegSyncValue1+i)<<8)+_data->SyncWord[i]);
 8002206:	f816 0b01 	ldrb.w	r0, [r6], #1
 800220a:	4428      	add	r0, r5
 800220c:	f505 7580 	add.w	r5, r5, #256	; 0x100
 8002210:	b280      	uxth	r0, r0
 8002212:	b2ad      	uxth	r5, r5
 8002214:	f7ff fe13 	bl	8001e3e <vSpiWrite>
        for(i=0;i<8;i++)                                //SyncWordSetting
 8002218:	f5b5 5f40 	cmp.w	r5, #12288	; 0x3000
 800221c:	d1f3      	bne.n	8002206 <RFM98W_LoRa_vConfig+0x358>
        if(!_data->FixedPktLength)
 800221e:	7b23      	ldrb	r3, [r4, #12]
            i += VariablePacket;
 8002220:	2b00      	cmp	r3, #0
        if(!_data->CrcDisable)
 8002222:	7b63      	ldrb	r3, [r4, #13]
            i += VariablePacket;
 8002224:	bf14      	ite	ne
 8002226:	2000      	movne	r0, #0
 8002228:	2080      	moveq	r0, #128	; 0x80
        if(!_data->CrcDisable)
 800222a:	b90b      	cbnz	r3, 8002230 <RFM98W_LoRa_vConfig+0x382>
            i += CrcOn;
 800222c:	3010      	adds	r0, #16
 800222e:	b2c0      	uxtb	r0, r0
        vSpiWrite(((word)RegPacketConfig1<<8)+i);
 8002230:	f500 5040 	add.w	r0, r0, #12288	; 0x3000
 8002234:	f7ff fe03 	bl	8001e3e <vSpiWrite>
        vSpiWrite(((word)RegPacketConfig2<<8)+PacketMode);
 8002238:	f44f 5045 	mov.w	r0, #12608	; 0x3140
 800223c:	f7ff fdff 	bl	8001e3e <vSpiWrite>
        if(_data->FixedPktLength)                               //Set Packet length
 8002240:	7b23      	ldrb	r3, [r4, #12]
 8002242:	b303      	cbz	r3, 8002286 <RFM98W_LoRa_vConfig+0x3d8>
            vSpiWrite(((word)RegPayloadLength<<8)+_data->PayloadLength);
 8002244:	7ba0      	ldrb	r0, [r4, #14]
 8002246:	f500 5048 	add.w	r0, r0, #12800	; 0x3200
            vSpiWrite(((word)RegPayloadLength<<8)+0xFF);
 800224a:	f7ff fdf8 	bl	8001e3e <vSpiWrite>
        vSpiWrite(((word)RegFifoThresh<<8)+0x01);
 800224e:	f243 5001 	movw	r0, #13569	; 0x3501
 8002252:	f7ff fdf4 	bl	8001e3e <vSpiWrite>
        vSpiWrite(((word)RegDioMapping2<<8)+0x61);  //DIO4 PllLock / DIO5 Data / PreambleDetect
 8002256:	f244 1061 	movw	r0, #16737	; 0x4161
 800225a:	e725      	b.n	80020a8 <RFM98W_LoRa_vConfig+0x1fa>
                    case OOK:  i |= OokMode+(Shaping<<3); break;
 800225c:	f045 0530 	orr.w	r5, r5, #48	; 0x30
 8002260:	e77f      	b.n	8002162 <RFM98W_LoRa_vConfig+0x2b4>
                    case GFSK: i |= FskMode+(Shaping<<3); break;
 8002262:	f045 0510 	orr.w	r5, r5, #16
 8002266:	e77c      	b.n	8002162 <RFM98W_LoRa_vConfig+0x2b4>
                i &= MOUDLE_MASK_1;
 8002268:	f005 059f 	and.w	r5, r5, #159	; 0x9f
                j &= 0x9F;
 800226c:	f000 069f 	and.w	r6, r0, #159	; 0x9f
                switch(_data->Modulation)
 8002270:	b133      	cbz	r3, 8002280 <RFM98W_LoRa_vConfig+0x3d2>
 8002272:	2b02      	cmp	r3, #2
 8002274:	f47f af75 	bne.w	8002162 <RFM98W_LoRa_vConfig+0x2b4>
                    case GFSK: i |= FskMode; j |= (Shaping<<5); break;
 8002278:	f046 0640 	orr.w	r6, r6, #64	; 0x40
 800227c:	b2f6      	uxtb	r6, r6
 800227e:	e770      	b.n	8002162 <RFM98W_LoRa_vConfig+0x2b4>
                    case OOK:  i |= OokMode; j |= (Shaping<<5); break;
 8002280:	f045 0520 	orr.w	r5, r5, #32
 8002284:	e7f8      	b.n	8002278 <RFM98W_LoRa_vConfig+0x3ca>
            vSpiWrite(((word)RegPayloadLength<<8)+0xFF);
 8002286:	f243 20ff 	movw	r0, #13055	; 0x32ff
 800228a:	e7de      	b.n	800224a <RFM98W_LoRa_vConfig+0x39c>

0800228c <RFM98W_LoRa_init>:
{
 800228c:	b510      	push	{r4, lr}
    hspi_RFM98W = _hspi_RFM98W;
 800228e:	4c52      	ldr	r4, [pc, #328]	; (80023d8 <RFM98W_LoRa_init+0x14c>)
 8002290:	6121      	str	r1, [r4, #16]
    _data->FrequencyValue.Freq = (_data->Frequency<<11)/125;        //calc frequency
 8002292:	217d      	movs	r1, #125	; 0x7d
    SPI_CS_GPIO_Pin = _SPI_CS_GPIO_Pin;
 8002294:	8123      	strh	r3, [r4, #8]
    RESET_GPIOx = _RESET_GPIOx;
 8002296:	9b02      	ldr	r3, [sp, #8]
    SPI_CS_GPIOx = _SPI_CS_GPIOx;
 8002298:	60e2      	str	r2, [r4, #12]
    RESET_GPIOx = _RESET_GPIOx;
 800229a:	6063      	str	r3, [r4, #4]
    RESET_GPIO_Pin = _RESET_GPIO_Pin;
 800229c:	f8bd 300c 	ldrh.w	r3, [sp, #12]
 80022a0:	8023      	strh	r3, [r4, #0]
    _data->FrequencyValue.Freq = (_data->Frequency<<11)/125;        //calc frequency
 80022a2:	6843      	ldr	r3, [r0, #4]
 80022a4:	02da      	lsls	r2, r3, #11
 80022a6:	fbb2 f2f1 	udiv	r2, r2, r1
    _data->BitRateValue  = (_data->SymbolTime<<5)/1000;             //calc bitrate
 80022aa:	f44f 737a 	mov.w	r3, #1000	; 0x3e8
    _data->FrequencyValue.Freq = (_data->Frequency<<11)/125;        //calc frequency
 80022ae:	6282      	str	r2, [r0, #40]	; 0x28
    _data->BitRateValue  = (_data->SymbolTime<<5)/1000;             //calc bitrate
 80022b0:	6902      	ldr	r2, [r0, #16]
 80022b2:	0152      	lsls	r2, r2, #5
 80022b4:	fbb2 f2f3 	udiv	r2, r2, r3
    _data->DevationValue = (_data->Devation<<11)/125;               //calc deviation
 80022b8:	6943      	ldr	r3, [r0, #20]
    _data->BitRateValue  = (_data->SymbolTime<<5)/1000;             //calc bitrate
 80022ba:	8582      	strh	r2, [r0, #44]	; 0x2c
    _data->DevationValue = (_data->Devation<<11)/125;               //calc deviation
 80022bc:	02db      	lsls	r3, r3, #11
 80022be:	fbb3 f3f1 	udiv	r3, r3, r1
 80022c2:	85c3      	strh	r3, [r0, #46]	; 0x2e
    _data->BandWidthValue = RFM98W_LoRa_bSelectBandwidth(_data->BandWidth);
 80022c4:	7e03      	ldrb	r3, [r0, #24]
    if(rx_bw<=10)
 80022c6:	2b0a      	cmp	r3, #10
 80022c8:	d929      	bls.n	800231e <RFM98W_LoRa_init+0x92>
    else if(rx_bw<13)
 80022ca:	2b0c      	cmp	r3, #12
 80022cc:	d929      	bls.n	8002322 <RFM98W_LoRa_init+0x96>
    else if(rx_bw<16)
 80022ce:	2b0f      	cmp	r3, #15
 80022d0:	d929      	bls.n	8002326 <RFM98W_LoRa_init+0x9a>
    else if(rx_bw<21)
 80022d2:	2b14      	cmp	r3, #20
 80022d4:	d929      	bls.n	800232a <RFM98W_LoRa_init+0x9e>
    else if(rx_bw<=25)
 80022d6:	2b19      	cmp	r3, #25
 80022d8:	d929      	bls.n	800232e <RFM98W_LoRa_init+0xa2>
    else if(rx_bw<32)
 80022da:	2b1f      	cmp	r3, #31
 80022dc:	d929      	bls.n	8002332 <RFM98W_LoRa_init+0xa6>
    else if(rx_bw<42)
 80022de:	2b29      	cmp	r3, #41	; 0x29
 80022e0:	d929      	bls.n	8002336 <RFM98W_LoRa_init+0xaa>
    else if(rx_bw<=50)
 80022e2:	2b32      	cmp	r3, #50	; 0x32
 80022e4:	d929      	bls.n	800233a <RFM98W_LoRa_init+0xae>
    else if(rx_bw<63)
 80022e6:	2b3e      	cmp	r3, #62	; 0x3e
 80022e8:	d929      	bls.n	800233e <RFM98W_LoRa_init+0xb2>
    else if(rx_bw<84)
 80022ea:	2b53      	cmp	r3, #83	; 0x53
 80022ec:	d929      	bls.n	8002342 <RFM98W_LoRa_init+0xb6>
    else if(rx_bw<=100)
 80022ee:	2b64      	cmp	r3, #100	; 0x64
 80022f0:	d929      	bls.n	8002346 <RFM98W_LoRa_init+0xba>
    else if(rx_bw<=125)
 80022f2:	428b      	cmp	r3, r1
 80022f4:	d929      	bls.n	800234a <RFM98W_LoRa_init+0xbe>
    else if(rx_bw<167)
 80022f6:	2ba6      	cmp	r3, #166	; 0xa6
 80022f8:	d929      	bls.n	800234e <RFM98W_LoRa_init+0xc2>
    else if(rx_bw<=200)
 80022fa:	2bc8      	cmp	r3, #200	; 0xc8
 80022fc:	d929      	bls.n	8002352 <RFM98W_LoRa_init+0xc6>
        return 0x10;                        //333KHz
 80022fe:	2bfb      	cmp	r3, #251	; 0xfb
 8002300:	bf34      	ite	cc
 8002302:	2301      	movcc	r3, #1
 8002304:	2310      	movcs	r3, #16
    _data->BandWidthValue = RFM98W_LoRa_bSelectBandwidth(_data->BandWidth);
 8002306:	f880 3030 	strb.w	r3, [r0, #48]	; 0x30
    switch(_data->SFSel)
 800230a:	f890 3023 	ldrb.w	r3, [r0, #35]	; 0x23
 800230e:	2b06      	cmp	r3, #6
 8002310:	d855      	bhi.n	80023be <RFM98W_LoRa_init+0x132>
 8002312:	e8df f003 	tbb	[pc, r3]
 8002316:	4a20      	.short	0x4a20
 8002318:	504e544c 	.word	0x504e544c
 800231c:	52          	.byte	0x52
 800231d:	00          	.byte	0x00
        return 0x15;                        //10.4KHz   Min
 800231e:	2315      	movs	r3, #21
 8002320:	e7f1      	b.n	8002306 <RFM98W_LoRa_init+0x7a>
        return 0x0D;                        //12.5KHz
 8002322:	230d      	movs	r3, #13
 8002324:	e7ef      	b.n	8002306 <RFM98W_LoRa_init+0x7a>
        return 0x05;                        //15.6KHz
 8002326:	2305      	movs	r3, #5
 8002328:	e7ed      	b.n	8002306 <RFM98W_LoRa_init+0x7a>
        return 0x14;                        //20.8KHz
 800232a:	2314      	movs	r3, #20
 800232c:	e7eb      	b.n	8002306 <RFM98W_LoRa_init+0x7a>
        return 0x0C;                        //25.0KHz
 800232e:	230c      	movs	r3, #12
 8002330:	e7e9      	b.n	8002306 <RFM98W_LoRa_init+0x7a>
        return 0x04;                        //31.3KHz
 8002332:	2304      	movs	r3, #4
 8002334:	e7e7      	b.n	8002306 <RFM98W_LoRa_init+0x7a>
        return 0x13;                        //41.7KHz
 8002336:	2313      	movs	r3, #19
 8002338:	e7e5      	b.n	8002306 <RFM98W_LoRa_init+0x7a>
        return 0x0B;                        //50.0KHz
 800233a:	230b      	movs	r3, #11
 800233c:	e7e3      	b.n	8002306 <RFM98W_LoRa_init+0x7a>
        return 0x03;                        //62.5KHz
 800233e:	2303      	movs	r3, #3
 8002340:	e7e1      	b.n	8002306 <RFM98W_LoRa_init+0x7a>
        return 0x12;                        //83.3KHz
 8002342:	2312      	movs	r3, #18
 8002344:	e7df      	b.n	8002306 <RFM98W_LoRa_init+0x7a>
        return 0x0A;                        //100KHz
 8002346:	230a      	movs	r3, #10
 8002348:	e7dd      	b.n	8002306 <RFM98W_LoRa_init+0x7a>
        return 0x02;                        //125KHz
 800234a:	2302      	movs	r3, #2
 800234c:	e7db      	b.n	8002306 <RFM98W_LoRa_init+0x7a>
        return 0x11;                        //167KHz
 800234e:	2311      	movs	r3, #17
 8002350:	e7d9      	b.n	8002306 <RFM98W_LoRa_init+0x7a>
        return 0x09;                        //200KHz
 8002352:	2309      	movs	r3, #9
 8002354:	e7d7      	b.n	8002306 <RFM98W_LoRa_init+0x7a>
        case SF6:  _data->SFValue = 6; break;
 8002356:	2306      	movs	r3, #6
        default:   _data->SFValue = 9; break;
 8002358:	f880 3031 	strb.w	r3, [r0, #49]	; 0x31
    switch(_data->BWSel)
 800235c:	f890 3024 	ldrb.w	r3, [r0, #36]	; 0x24
 8002360:	2b02      	cmp	r3, #2
 8002362:	d02e      	beq.n	80023c2 <RFM98W_LoRa_init+0x136>
 8002364:	2b03      	cmp	r3, #3
 8002366:	d02e      	beq.n	80023c6 <RFM98W_LoRa_init+0x13a>
 8002368:	bb7b      	cbnz	r3, 80023ca <RFM98W_LoRa_init+0x13e>
        case BW62K:  _data->BWValue = 6; break;             //for RFM95/96/97/98
 800236a:	2306      	movs	r3, #6
        default:     _data->BWValue = 7; break;
 800236c:	f880 3032 	strb.w	r3, [r0, #50]	; 0x32
    switch(_data->CRSel)
 8002370:	f890 3025 	ldrb.w	r3, [r0, #37]	; 0x25
 8002374:	2b02      	cmp	r3, #2
 8002376:	d02a      	beq.n	80023ce <RFM98W_LoRa_init+0x142>
 8002378:	2b03      	cmp	r3, #3
 800237a:	d02a      	beq.n	80023d2 <RFM98W_LoRa_init+0x146>
 800237c:	2b01      	cmp	r3, #1
        case CR4_5: _data->CRValue = 1; break;
 800237e:	bf14      	ite	ne
 8002380:	2301      	movne	r3, #1
        case CR4_6: _data->CRValue = 2; break;
 8002382:	2302      	moveq	r3, #2
        case CR4_8: _data->CRValue = 4; break;
 8002384:	f880 3033 	strb.w	r3, [r0, #51]	; 0x33
    if((_data->SFValue-4) >= _data->BWValue)
 8002388:	f890 3031 	ldrb.w	r3, [r0, #49]	; 0x31
 800238c:	f890 2032 	ldrb.w	r2, [r0, #50]	; 0x32
 8002390:	3b03      	subs	r3, #3
 8002392:	4293      	cmp	r3, r2
        _data->RsOptimize = true;
 8002394:	bfcc      	ite	gt
 8002396:	2301      	movgt	r3, #1
        _data->RsOptimize = false;
 8002398:	2300      	movle	r3, #0
 800239a:	f880 3034 	strb.w	r3, [r0, #52]	; 0x34
    RFM98W_LoRa_vConfig(_data);
 800239e:	f7ff fd86 	bl	8001eae <RFM98W_LoRa_vConfig>
    RFM98W_LoRa_vGoStandby();
 80023a2:	f7ff fd76 	bl	8001e92 <RFM98W_LoRa_vGoStandby>
}
 80023a6:	2001      	movs	r0, #1
 80023a8:	bd10      	pop	{r4, pc}
        case SF7:  _data->SFValue = 7; break;
 80023aa:	2307      	movs	r3, #7
 80023ac:	e7d4      	b.n	8002358 <RFM98W_LoRa_init+0xcc>
        case SF8:  _data->SFValue = 8; break;
 80023ae:	2308      	movs	r3, #8
 80023b0:	e7d2      	b.n	8002358 <RFM98W_LoRa_init+0xcc>
        case SF10: _data->SFValue = 10;break;
 80023b2:	230a      	movs	r3, #10
 80023b4:	e7d0      	b.n	8002358 <RFM98W_LoRa_init+0xcc>
        case SF11: _data->SFValue = 11;break;
 80023b6:	230b      	movs	r3, #11
 80023b8:	e7ce      	b.n	8002358 <RFM98W_LoRa_init+0xcc>
        case SF12: _data->SFValue = 12;break;
 80023ba:	230c      	movs	r3, #12
 80023bc:	e7cc      	b.n	8002358 <RFM98W_LoRa_init+0xcc>
        default:   _data->SFValue = 9; break;
 80023be:	2309      	movs	r3, #9
 80023c0:	e7ca      	b.n	8002358 <RFM98W_LoRa_init+0xcc>
        case BW250K: _data->BWValue = 8; break;
 80023c2:	2308      	movs	r3, #8
 80023c4:	e7d2      	b.n	800236c <RFM98W_LoRa_init+0xe0>
        case BW500K: _data->BWValue = 9; break;
 80023c6:	2309      	movs	r3, #9
 80023c8:	e7d0      	b.n	800236c <RFM98W_LoRa_init+0xe0>
        default:     _data->BWValue = 7; break;
 80023ca:	2307      	movs	r3, #7
 80023cc:	e7ce      	b.n	800236c <RFM98W_LoRa_init+0xe0>
        case CR4_7: _data->CRValue = 3; break;
 80023ce:	2303      	movs	r3, #3
 80023d0:	e7d8      	b.n	8002384 <RFM98W_LoRa_init+0xf8>
        case CR4_8: _data->CRValue = 4; break;
 80023d2:	2304      	movs	r3, #4
 80023d4:	e7d6      	b.n	8002384 <RFM98W_LoRa_init+0xf8>
 80023d6:	bf00      	nop
 80023d8:	20000028 	.word	0x20000028

080023dc <RFM98W_LoRa_bSendMessage>:
{
 80023dc:	b5f8      	push	{r3, r4, r5, r6, r7, lr}
    if(_data->Modulation==LORA)
 80023de:	7843      	ldrb	r3, [r0, #1]
{
 80023e0:	4604      	mov	r4, r0
    if(_data->Modulation==LORA)
 80023e2:	2b03      	cmp	r3, #3
{
 80023e4:	460d      	mov	r5, r1
 80023e6:	4617      	mov	r7, r2
    if(_data->Modulation==LORA)
 80023e8:	d162      	bne.n	80024b0 <RFM98W_LoRa_bSendMessage+0xd4>
        vSpiWrite(((word)RegPayloadLength_LR<<8)+length);
 80023ea:	f502 5008 	add.w	r0, r2, #8704	; 0x2200
 80023ee:	f7ff fd26 	bl	8001e3e <vSpiWrite>
        vSpiWrite(((word)RegDioMapping1<<8)+0x62);      //DIO0 TxDone / DIO1 CadDetected / DIO2 FhssChangeChannel /DIO3 PayloadCrcError
 80023f2:	f244 0062 	movw	r0, #16482	; 0x4062
 80023f6:	f7ff fd22 	bl	8001e3e <vSpiWrite>
        vSpiWrite(((word)RegIrqFlags<<8)+AllIrqMask);   //Clear All Interrupt
 80023fa:	f241 20ff 	movw	r0, #4863	; 0x12ff
 80023fe:	f7ff fd1e 	bl	8001e3e <vSpiWrite>
        vSpiWrite(((word)RegIrqFlagsMask<<8)+(AllIrqMask&(~TxDoneMask)));   //just enable TxDone
 8002402:	f241 10f7 	movw	r0, #4599	; 0x11f7
 8002406:	f7ff fd1a 	bl	8001e3e <vSpiWrite>
        tmp = bSpiRead(RegFifoTxBaseAddr);              //Read TxBaseAddr
 800240a:	200e      	movs	r0, #14
 800240c:	f7ff fd06 	bl	8001e1c <bSpiRead>
        vSpiWrite(((word)RegFifoAddrPtr<<8)+tmp);       //RxBaseAddr -> FiFoAddrPtr
 8002410:	f500 6050 	add.w	r0, r0, #3328	; 0xd00
 8002414:	b280      	uxth	r0, r0
            vSpiWrite(((word)RegFifo<<8)+length);
 8002416:	f7ff fd12 	bl	8001e3e <vSpiWrite>
        vSpiBurstWrite(RegFifo, msg, length);
 800241a:	4639      	mov	r1, r7
 800241c:	4628      	mov	r0, r5
 800241e:	f7ff fd20 	bl	8001e62 <vSpiBurstWrite.constprop.2>
    tmp = bSpiRead(RegOpMode);
 8002422:	2001      	movs	r0, #1
 8002424:	f7ff fcfa 	bl	8001e1c <bSpiRead>
    tmp&= MODE_MASK;
 8002428:	f000 00f8 	and.w	r0, r0, #248	; 0xf8
    tmp |= RADIO_TX;
 800242c:	f040 0503 	orr.w	r5, r0, #3
    vSpiWrite(((word)RegOpMode<<8)+tmp);
 8002430:	f505 7080 	add.w	r0, r5, #256	; 0x100
 8002434:	f7ff fd03 	bl	8001e3e <vSpiWrite>
    if(_data->Modulation==LORA)
 8002438:	7863      	ldrb	r3, [r4, #1]
 800243a:	7b22      	ldrb	r2, [r4, #12]
 800243c:	2b03      	cmp	r3, #3
 800243e:	8966      	ldrh	r6, [r4, #10]
 8002440:	7b60      	ldrb	r0, [r4, #13]
 8002442:	d147      	bne.n	80024d4 <RFM98W_LoRa_bSendMessage+0xf8>
        bittime  = (length<<3) + 28 - (_data->SFValue<<2);
 8002444:	f894 5031 	ldrb.w	r5, [r4, #49]	; 0x31
        overtime = _data->PreambleLength + 5 + 8;   //unit: byte
 8002448:	360d      	adds	r6, #13
        bittime  = (length<<3) + 28 - (_data->SFValue<<2);
 800244a:	00ab      	lsls	r3, r5, #2
 800244c:	ebc3 03c7 	rsb	r3, r3, r7, lsl #3
 8002450:	b29b      	uxth	r3, r3
        if(!_data->CrcDisable)
 8002452:	2800      	cmp	r0, #0
 8002454:	d035      	beq.n	80024c2 <RFM98W_LoRa_bSendMessage+0xe6>
        bittime  = (length<<3) + 28 - (_data->SFValue<<2);
 8002456:	331c      	adds	r3, #28
            bittime += 16;
 8002458:	b29b      	uxth	r3, r3
        if(_data->FixedPktLength)
 800245a:	b10a      	cbz	r2, 8002460 <RFM98W_LoRa_bSendMessage+0x84>
            bittime -= 20;
 800245c:	3b14      	subs	r3, #20
 800245e:	b29b      	uxth	r3, r3
        switch(_data->CRSel)
 8002460:	f894 2025 	ldrb.w	r2, [r4, #37]	; 0x25
 8002464:	2a02      	cmp	r2, #2
 8002466:	d02e      	beq.n	80024c6 <RFM98W_LoRa_bSendMessage+0xea>
 8002468:	2a03      	cmp	r2, #3
 800246a:	d02f      	beq.n	80024cc <RFM98W_LoRa_bSendMessage+0xf0>
 800246c:	2a01      	cmp	r2, #1
            case CR4_6: bittime *= 6; break;
 800246e:	bf0a      	itet	eq
 8002470:	eb03 0343 	addeq.w	r3, r3, r3, lsl #1
            case CR4_5: bittime *= 5; break;
 8002474:	eb03 0383 	addne.w	r3, r3, r3, lsl #2
            case CR4_6: bittime *= 6; break;
 8002478:	005b      	lsleq	r3, r3, #1
            case CR4_8: bittime *= 8; break;
 800247a:	b29b      	uxth	r3, r3
        bittime >>= 2;
 800247c:	0898      	lsrs	r0, r3, #2
        if(_data->RsOptimize)
 800247e:	f894 3034 	ldrb.w	r3, [r4, #52]	; 0x34
 8002482:	b32b      	cbz	r3, 80024d0 <RFM98W_LoRa_bSendMessage+0xf4>
            bittime /= 10;
 8002484:	230a      	movs	r3, #10
            bittime /= 12;
 8002486:	fbb0 f0f3 	udiv	r0, r0, r3
        if(_data->SFValue >= _data->BWValue)            //unit: ms
 800248a:	f894 3032 	ldrb.w	r3, [r4, #50]	; 0x32
        overtime += bittime;            //unit: byte,  total = Payload + Preamble + Header
 800248e:	4430      	add	r0, r6
        if(_data->SFValue >= _data->BWValue)            //unit: ms
 8002490:	429d      	cmp	r5, r3
            overtime <<= (_data->SFValue - _data->BWValue);
 8002492:	bf2b      	itete	cs
 8002494:	1aed      	subcs	r5, r5, r3
            overtime >>= (_data->BWValue - _data->SFValue);
 8002496:	1b5d      	subcc	r5, r3, r5
            overtime <<= (_data->SFValue - _data->BWValue);
 8002498:	40a8      	lslcs	r0, r5
            overtime >>= (_data->BWValue - _data->SFValue);
 800249a:	40e8      	lsrcc	r0, r5
        _delay_ms(overtime);            //
 800249c:	f7fd fea4 	bl	80001e8 <HAL_Delay>
        vSpiWrite(((word)RegIrqFlags<<8)+AllIrqMask);   //Clear All Interrupt
 80024a0:	f241 20ff 	movw	r0, #4863	; 0x12ff
 80024a4:	f7ff fccb 	bl	8001e3e <vSpiWrite>
        RFM98W_LoRa_vGoStandby();
 80024a8:	f7ff fcf3 	bl	8001e92 <RFM98W_LoRa_vGoStandby>
            return(true);
 80024ac:	2001      	movs	r0, #1
 80024ae:	bdf8      	pop	{r3, r4, r5, r6, r7, pc}
        vSpiWrite(((word)RegDioMapping1<<8)+0x00);  //DIO0 PacketSend  / DIO1 FifoLevel / DIO2 FifoFull /DIO3 FifoEmpty
 80024b0:	f44f 4080 	mov.w	r0, #16384	; 0x4000
 80024b4:	f7ff fcc3 	bl	8001e3e <vSpiWrite>
        if(!_data->FixedPktLength)
 80024b8:	7b23      	ldrb	r3, [r4, #12]
 80024ba:	2b00      	cmp	r3, #0
 80024bc:	d1ad      	bne.n	800241a <RFM98W_LoRa_bSendMessage+0x3e>
            vSpiWrite(((word)RegFifo<<8)+length);
 80024be:	4638      	mov	r0, r7
 80024c0:	e7a9      	b.n	8002416 <RFM98W_LoRa_bSendMessage+0x3a>
            bittime += 16;
 80024c2:	332c      	adds	r3, #44	; 0x2c
 80024c4:	e7c8      	b.n	8002458 <RFM98W_LoRa_bSendMessage+0x7c>
            case CR4_7: bittime *= 7; break;
 80024c6:	ebc3 03c3 	rsb	r3, r3, r3, lsl #3
 80024ca:	e7d6      	b.n	800247a <RFM98W_LoRa_bSendMessage+0x9e>
            case CR4_8: bittime *= 8; break;
 80024cc:	00db      	lsls	r3, r3, #3
 80024ce:	e7d4      	b.n	800247a <RFM98W_LoRa_bSendMessage+0x9e>
            bittime /= 12;
 80024d0:	230c      	movs	r3, #12
 80024d2:	e7d8      	b.n	8002486 <RFM98W_LoRa_bSendMessage+0xaa>
        bittime  = _data->SymbolTime/1000;      //unit: us
 80024d4:	f44f 737a 	mov.w	r3, #1000	; 0x3e8
 80024d8:	6921      	ldr	r1, [r4, #16]
 80024da:	fbb1 f1f3 	udiv	r1, r1, r3
        overtime = _data->SyncLength+_data->PreambleLength+length;
 80024de:	7ea3      	ldrb	r3, [r4, #26]
 80024e0:	4433      	add	r3, r6
 80024e2:	443b      	add	r3, r7
        if(!_data->FixedPktLength)              //SyncWord & PktLength & 2ByteCRC
 80024e4:	b902      	cbnz	r2, 80024e8 <RFM98W_LoRa_bSendMessage+0x10c>
            overtime += 1;
 80024e6:	3301      	adds	r3, #1
        if(!_data->CrcDisable)
 80024e8:	b900      	cbnz	r0, 80024ec <RFM98W_LoRa_bSendMessage+0x110>
            overtime += 2;
 80024ea:	3302      	adds	r3, #2
        overtime*= bittime;
 80024ec:	b288      	uxth	r0, r1
        overtime<<=3;                       //8bit == 1byte
 80024ee:	00db      	lsls	r3, r3, #3
        overtime*= bittime;
 80024f0:	4358      	muls	r0, r3
        overtime/= 1000;                    //unit: ms
 80024f2:	f44f 737a 	mov.w	r3, #1000	; 0x3e8
 80024f6:	fbb0 f0f3 	udiv	r0, r0, r3
            overtime = 1;
 80024fa:	2800      	cmp	r0, #0
        _delay_ms(overtime);                //
 80024fc:	bf08      	it	eq
 80024fe:	2001      	moveq	r0, #1
 8002500:	f7fd fe72 	bl	80001e8 <HAL_Delay>
        RFM98W_LoRa_vGoStandby();
 8002504:	f7ff fcc5 	bl	8001e92 <RFM98W_LoRa_vGoStandby>
            return(true);
 8002508:	2d63      	cmp	r5, #99	; 0x63
 800250a:	bf8c      	ite	hi
 800250c:	2000      	movhi	r0, #0
 800250e:	2001      	movls	r0, #1
}
 8002510:	bdf8      	pop	{r3, r4, r5, r6, r7, pc}

08002512 <RFM98W_LoRa_ReadRegister>:
    return bSpiRead(addr);
 8002512:	f7ff bc83 	b.w	8001e1c <bSpiRead>
	...

08002518 <ringBuffer_init_DMA>:
Input:    *huart: 	UART_HandleTypeDef data structure
TODO:	Insert "uart_tx_flag" and "uart_rx_flag" into interrupt !!!.
Returns:  void
**************************************************************************/
void ringBuffer_init_DMA(RING_BUFFER_DATA *buffer, UART_HandleTypeDef *huart)
{
 8002518:	4603      	mov	r3, r0
//	__HAL_DMA_DISABLE_IT(huart->hdmarx, DMA_IT_HT);

	buffer->huart = huart;

	// Init UART TX,RX interrupt flag
	buffer->uart_tx_flag = true;
 800251a:	2201      	movs	r2, #1
 800251c:	f883 221b 	strb.w	r2, [r3, #539]	; 0x21b
	buffer->uart_rx_flag = false;
 8002520:	2200      	movs	r2, #0
{
 8002522:	4608      	mov	r0, r1
	buffer->uart_rx_flag = false;
 8002524:	f883 221a 	strb.w	r2, [r3, #538]	; 0x21a
	buffer->huart = huart;
 8002528:	f8c3 1220 	str.w	r1, [r3, #544]	; 0x220

	buffer->RxTail = 0;
 800252c:	f8a3 2108 	strh.w	r2, [r3, #264]	; 0x108
	buffer->LOWER_RX_GUARD=0xBADF00D;
 8002530:	4906      	ldr	r1, [pc, #24]	; (800254c <ringBuffer_init_DMA+0x34>)
	buffer->UPPER_RX_GUARD=0xDEADCAFE;
 8002532:	4a07      	ldr	r2, [pc, #28]	; (8002550 <ringBuffer_init_DMA+0x38>)
	buffer->LOWER_RX_GUARD=0xBADF00D;
 8002534:	6019      	str	r1, [r3, #0]
	buffer->UPPER_RX_GUARD=0xDEADCAFE;
 8002536:	f8c3 2104 	str.w	r2, [r3, #260]	; 0x104
	buffer->LOWER_TX_GUARD=0xBADF00D;
 800253a:	f8c3 110c 	str.w	r1, [r3, #268]	; 0x10c
	buffer->UPPER_TX_GUARD=0xDEADCAFE;
 800253e:	f8c3 2210 	str.w	r2, [r3, #528]	; 0x210

	HAL_UART_Receive_DMA(huart, (uint8_t *)buffer->RxData, UART_RX_BUFFER_SIZE);
 8002542:	1d19      	adds	r1, r3, #4
 8002544:	f44f 7280 	mov.w	r2, #256	; 0x100
 8002548:	f7ff bab8 	b.w	8001abc <HAL_UART_Receive_DMA>
 800254c:	0badf00d 	.word	0x0badf00d
 8002550:	deadcafe 	.word	0xdeadcafe

08002554 <ringBuffer_checkBounds>:
**************************************************************************/

bool ringBuffer_checkBounds(RING_BUFFER_DATA *buffer)
{
	return
			buffer->LOWER_RX_GUARD==0xBADF00D &&
 8002554:	6802      	ldr	r2, [r0, #0]
			buffer->UPPER_RX_GUARD==0xDEADCAFE &&
			buffer->LOWER_TX_GUARD==0xBADF00D &&
 8002556:	4b0a      	ldr	r3, [pc, #40]	; (8002580 <ringBuffer_checkBounds+0x2c>)
 8002558:	429a      	cmp	r2, r3
 800255a:	d10e      	bne.n	800257a <ringBuffer_checkBounds+0x26>
			buffer->UPPER_RX_GUARD==0xDEADCAFE &&
 800255c:	f8d0 3104 	ldr.w	r3, [r0, #260]	; 0x104
			buffer->LOWER_RX_GUARD==0xBADF00D &&
 8002560:	4908      	ldr	r1, [pc, #32]	; (8002584 <ringBuffer_checkBounds+0x30>)
 8002562:	428b      	cmp	r3, r1
 8002564:	d109      	bne.n	800257a <ringBuffer_checkBounds+0x26>
			buffer->LOWER_TX_GUARD==0xBADF00D &&
 8002566:	f8d0 110c 	ldr.w	r1, [r0, #268]	; 0x10c
			buffer->UPPER_RX_GUARD==0xDEADCAFE &&
 800256a:	4291      	cmp	r1, r2
 800256c:	d105      	bne.n	800257a <ringBuffer_checkBounds+0x26>
			buffer->UPPER_TX_GUARD==0xDEADCAFE;
 800256e:	f8d0 0210 	ldr.w	r0, [r0, #528]	; 0x210
			buffer->LOWER_TX_GUARD==0xBADF00D &&
 8002572:	1ac3      	subs	r3, r0, r3
 8002574:	4258      	negs	r0, r3
 8002576:	4158      	adcs	r0, r3
 8002578:	4770      	bx	lr
 800257a:	2000      	movs	r0, #0

}
 800257c:	4770      	bx	lr
 800257e:	bf00      	nop
 8002580:	0badf00d 	.word	0x0badf00d
 8002584:	deadcafe 	.word	0xdeadcafe

08002588 <ringBuffer_check>:
Returns:  check available byte in ringbuffer
**************************************************************************/
uint8_t ringBuffer_check(RING_BUFFER_DATA *buffer)
{
#if defined(HAL_DMA_MODULE_ENABLED) && defined(HAL_UART_MODULE_ENABLED) && defined(UART_DMA_CIRCULAR_BUFFER)
	buffer->RxHead = ( (UART_RX_BUFFER_SIZE - __HAL_DMA_GET_COUNTER(buffer->huart->hdmarx) ) & (UART_RX_BUFFER_SIZE - 1) );
 8002588:	f8d0 3220 	ldr.w	r3, [r0, #544]	; 0x220
 800258c:	6b5b      	ldr	r3, [r3, #52]	; 0x34
 800258e:	681b      	ldr	r3, [r3, #0]
 8002590:	685b      	ldr	r3, [r3, #4]
 8002592:	425b      	negs	r3, r3
 8002594:	b2db      	uxtb	r3, r3
 8002596:	f8a0 310a 	strh.w	r3, [r0, #266]	; 0x10a
#endif	/* defined(HAL_DMA_MODULE_ENABLED) && defined(HAL_UART_MODULE_ENABLED) && defined(UART_DMA_CIRCULAR_BUFFER) */

#if 1	/* WERSJA POPRAWIONA/SKROCONA */
	return buffer->RxHead == buffer->RxTail ? 0 : 1;
 800259a:	f8b0 210a 	ldrh.w	r2, [r0, #266]	; 0x10a
 800259e:	f8b0 3108 	ldrh.w	r3, [r0, #264]	; 0x108
 80025a2:	b292      	uxth	r2, r2
 80025a4:	b29b      	uxth	r3, r3
		return 0;
	}

#endif

}
 80025a6:	1ad0      	subs	r0, r2, r3
 80025a8:	bf18      	it	ne
 80025aa:	2001      	movne	r0, #1
 80025ac:	4770      	bx	lr

080025ae <ringBuffer_read>:
{
 80025ae:	b508      	push	{r3, lr}
 80025b0:	4601      	mov	r1, r0
	if(!ringBuffer_check(buffer)){
 80025b2:	f7ff ffe9 	bl	8002588 <ringBuffer_check>
 80025b6:	b158      	cbz	r0, 80025d0 <ringBuffer_read+0x22>
	c = buffer->RxData[buffer->RxTail];
 80025b8:	f8b1 3108 	ldrh.w	r3, [r1, #264]	; 0x108
 80025bc:	b29b      	uxth	r3, r3
 80025be:	440b      	add	r3, r1
 80025c0:	7918      	ldrb	r0, [r3, #4]
	buffer->RxTail = (buffer->RxTail + 1) & UART_RX_BUFFER_MASK;
 80025c2:	f8b1 3108 	ldrh.w	r3, [r1, #264]	; 0x108
	c = buffer->RxData[buffer->RxTail];
 80025c6:	b2c0      	uxtb	r0, r0
	buffer->RxTail = (buffer->RxTail + 1) & UART_RX_BUFFER_MASK;
 80025c8:	3301      	adds	r3, #1
 80025ca:	b2db      	uxtb	r3, r3
 80025cc:	f8a1 3108 	strh.w	r3, [r1, #264]	; 0x108
}
 80025d0:	bd08      	pop	{r3, pc}

080025d2 <ringBuffer_readBytes>:
{
 80025d2:	b5f8      	push	{r3, r4, r5, r6, r7, lr}
 80025d4:	4607      	mov	r7, r0
 80025d6:	460c      	mov	r4, r1
 80025d8:	4615      	mov	r5, r2
 80025da:	188e      	adds	r6, r1, r2
	while (count < length) {
 80025dc:	42b4      	cmp	r4, r6
 80025de:	d101      	bne.n	80025e4 <ringBuffer_readBytes+0x12>
}
 80025e0:	4628      	mov	r0, r5
 80025e2:	bdf8      	pop	{r3, r4, r5, r6, r7, pc}
	    *_buffer_out++ = (uint8_t)ringBuffer_read(buffer);
 80025e4:	4638      	mov	r0, r7
 80025e6:	f7ff ffe2 	bl	80025ae <ringBuffer_read>
 80025ea:	f804 0b01 	strb.w	r0, [r4], #1
 80025ee:	e7f5      	b.n	80025dc <ringBuffer_readBytes+0xa>

080025f0 <ringBuffer_checkAvailable>:
Returns:  numbers of bytes available  in ringbuffer
**************************************************************************/
uint16_t ringBuffer_checkAvailable(RING_BUFFER_DATA *buffer)
{
#if defined(HAL_DMA_MODULE_ENABLED) && defined(HAL_UART_MODULE_ENABLED) && defined(UART_DMA_CIRCULAR_BUFFER)
	buffer->RxHead = ( (UART_RX_BUFFER_SIZE - __HAL_DMA_GET_COUNTER(buffer->huart->hdmarx) ) & (UART_RX_BUFFER_SIZE - 1) );
 80025f0:	f8d0 3220 	ldr.w	r3, [r0, #544]	; 0x220
 80025f4:	6b5b      	ldr	r3, [r3, #52]	; 0x34
 80025f6:	681b      	ldr	r3, [r3, #0]
 80025f8:	685b      	ldr	r3, [r3, #4]
 80025fa:	425b      	negs	r3, r3
 80025fc:	b2db      	uxtb	r3, r3
 80025fe:	f8a0 310a 	strh.w	r3, [r0, #266]	; 0x10a
#endif	/* defined(HAL_DMA_MODULE_ENABLED) && defined(HAL_UART_MODULE_ENABLED) && defined(UART_DMA_CIRCULAR_BUFFER) */
	return ((uint16_t)(UART_RX_BUFFER_SIZE + buffer->RxHead - buffer->RxTail)) % UART_RX_BUFFER_SIZE;
 8002602:	f8b0 310a 	ldrh.w	r3, [r0, #266]	; 0x10a
 8002606:	f8b0 0108 	ldrh.w	r0, [r0, #264]	; 0x108
 800260a:	1a18      	subs	r0, r3, r0
}
 800260c:	b2c0      	uxtb	r0, r0
 800260e:	4770      	bx	lr

08002610 <ringBuffer_flush>:
void ringBuffer_flush(RING_BUFFER_DATA *buffer)//	wyczyszczenie bufora
{
#if 1
//	buffer->RxHead = 0;
//	buffer->RxTail = 0;
	buffer->RxTail = buffer->RxHead;
 8002610:	f8b0 310a 	ldrh.w	r3, [r0, #266]	; 0x10a
	memset((uint8_t*)buffer->RxData, 0, sizeof(buffer->RxData));
 8002614:	f44f 7280 	mov.w	r2, #256	; 0x100
	buffer->RxTail = buffer->RxHead;
 8002618:	b29b      	uxth	r3, r3
 800261a:	f8a0 3108 	strh.w	r3, [r0, #264]	; 0x108
	memset((uint8_t*)buffer->RxData, 0, sizeof(buffer->RxData));
 800261e:	2100      	movs	r1, #0
 8002620:	3004      	adds	r0, #4
 8002622:	f001 b9d8 	b.w	80039d6 <memset>
	...

08002628 <soft_timer_handler>:
inline void soft_timer_handler(volatile uint16_t *_soft_timer, const uint8_t _st_size)
{
	static uint16_t x = 0;	//	auxiliary variable
	static uint8_t i = 0;	//	max 255 soft timers

	for (i = 0; i < _st_size; i++) {
 8002628:	2300      	movs	r3, #0
{
 800262a:	b530      	push	{r4, r5, lr}
	for (i = 0; i < _st_size; i++) {
 800262c:	461d      	mov	r5, r3
 800262e:	4c09      	ldr	r4, [pc, #36]	; (8002654 <soft_timer_handler+0x2c>)
 8002630:	7023      	strb	r3, [r4, #0]
 8002632:	4299      	cmp	r1, r3
 8002634:	d802      	bhi.n	800263c <soft_timer_handler+0x14>
 8002636:	b105      	cbz	r5, 800263a <soft_timer_handler+0x12>
 8002638:	7023      	strb	r3, [r4, #0]
 800263a:	bd30      	pop	{r4, r5, pc}
		x = _soft_timer[i];
 800263c:	8802      	ldrh	r2, [r0, #0]
 800263e:	b292      	uxth	r2, r2
		if(x) _soft_timer[i] = --x;
 8002640:	b112      	cbz	r2, 8002648 <soft_timer_handler+0x20>
 8002642:	3a01      	subs	r2, #1
 8002644:	b292      	uxth	r2, r2
 8002646:	8002      	strh	r2, [r0, #0]
 8002648:	3301      	adds	r3, #1
 800264a:	b2db      	uxtb	r3, r3
 800264c:	3002      	adds	r0, #2
 800264e:	2501      	movs	r5, #1
 8002650:	e7ef      	b.n	8002632 <soft_timer_handler+0xa>
 8002652:	bf00      	nop
 8002654:	2000003c 	.word	0x2000003c

08002658 <HAL_SYSTICK_Callback>:
/* USER CODE BEGIN 4 */

void HAL_SYSTICK_Callback(void)
{

	soft_timer_handler(soft_timer, ST_SIZE);
 8002658:	2101      	movs	r1, #1
 800265a:	4801      	ldr	r0, [pc, #4]	; (8002660 <HAL_SYSTICK_Callback+0x8>)
 800265c:	f7ff bfe4 	b.w	8002628 <soft_timer_handler>
 8002660:	20000502 	.word	0x20000502

08002664 <HAL_UART_TxCpltCallback>:
}

#ifdef HAL_UART_MODULE_ENABLED
void HAL_UART_TxCpltCallback(UART_HandleTypeDef *huart)
{
	if(huart->Instance == USART2){	//	current UART
 8002664:	6803      	ldr	r3, [r0, #0]
 8002666:	4a07      	ldr	r2, [pc, #28]	; (8002684 <HAL_UART_TxCpltCallback+0x20>)
 8002668:	4293      	cmp	r3, r2
 800266a:	d104      	bne.n	8002676 <HAL_UART_TxCpltCallback+0x12>
		uart2_buffer_gps.uart_tx_flag = true;
 800266c:	2201      	movs	r2, #1
 800266e:	4b06      	ldr	r3, [pc, #24]	; (8002688 <HAL_UART_TxCpltCallback+0x24>)
	}
	else if(huart->Instance == USART3){	//	current UART
		uart3_buffer_gsm.uart_tx_flag = true;
 8002670:	f883 221b 	strb.w	r2, [r3, #539]	; 0x21b
 8002674:	4770      	bx	lr
	else if(huart->Instance == USART3){	//	current UART
 8002676:	4a05      	ldr	r2, [pc, #20]	; (800268c <HAL_UART_TxCpltCallback+0x28>)
 8002678:	4293      	cmp	r3, r2
 800267a:	d1fb      	bne.n	8002674 <HAL_UART_TxCpltCallback+0x10>
		uart3_buffer_gsm.uart_tx_flag = true;
 800267c:	2201      	movs	r2, #1
 800267e:	4b04      	ldr	r3, [pc, #16]	; (8002690 <HAL_UART_TxCpltCallback+0x2c>)
 8002680:	e7f6      	b.n	8002670 <HAL_UART_TxCpltCallback+0xc>
 8002682:	bf00      	nop
 8002684:	40004400 	.word	0x40004400
 8002688:	200002d8 	.word	0x200002d8
 800268c:	40004800 	.word	0x40004800
 8002690:	200005c0 	.word	0x200005c0

08002694 <HAL_UART_RxCpltCallback>:
	}
}

void HAL_UART_RxCpltCallback(UART_HandleTypeDef *huart)
{
	if(huart->Instance == USART2){	//	current UART
 8002694:	6803      	ldr	r3, [r0, #0]
 8002696:	4a07      	ldr	r2, [pc, #28]	; (80026b4 <HAL_UART_RxCpltCallback+0x20>)
 8002698:	4293      	cmp	r3, r2
 800269a:	d104      	bne.n	80026a6 <HAL_UART_RxCpltCallback+0x12>
		uart2_buffer_gps.uart_rx_flag = true;
 800269c:	2201      	movs	r2, #1
 800269e:	4b06      	ldr	r3, [pc, #24]	; (80026b8 <HAL_UART_RxCpltCallback+0x24>)
		// DMA Mode: Circular jest wlaczony dlatego te linie sa zakomentowane, nie trzeba zalanczac od nowa przerwania
	}
	else if(huart->Instance == USART3){	//	current UART
		uart3_buffer_gsm.uart_rx_flag = true;
 80026a0:	f883 221a 	strb.w	r2, [r3, #538]	; 0x21a
 80026a4:	4770      	bx	lr
	else if(huart->Instance == USART3){	//	current UART
 80026a6:	4a05      	ldr	r2, [pc, #20]	; (80026bc <HAL_UART_RxCpltCallback+0x28>)
 80026a8:	4293      	cmp	r3, r2
 80026aa:	d1fb      	bne.n	80026a4 <HAL_UART_RxCpltCallback+0x10>
		uart3_buffer_gsm.uart_rx_flag = true;
 80026ac:	2201      	movs	r2, #1
 80026ae:	4b04      	ldr	r3, [pc, #16]	; (80026c0 <HAL_UART_RxCpltCallback+0x2c>)
 80026b0:	e7f6      	b.n	80026a0 <HAL_UART_RxCpltCallback+0xc>
 80026b2:	bf00      	nop
 80026b4:	40004400 	.word	0x40004400
 80026b8:	200002d8 	.word	0x200002d8
 80026bc:	40004800 	.word	0x40004800
 80026c0:	200005c0 	.word	0x200005c0

080026c4 <HAL_UART_ErrorCallback>:
	}
}

void HAL_UART_ErrorCallback(UART_HandleTypeDef *huart)
{
 80026c4:	b57f      	push	{r0, r1, r2, r3, r4, r5, r6, lr}
	if(huart->Instance == USART2){	//	current UART
 80026c6:	6803      	ldr	r3, [r0, #0]
 80026c8:	4a1d      	ldr	r2, [pc, #116]	; (8002740 <HAL_UART_ErrorCallback+0x7c>)
 80026ca:	4293      	cmp	r3, r2
 80026cc:	d11e      	bne.n	800270c <HAL_UART_ErrorCallback+0x48>
		__HAL_UART_CLEAR_OREFLAG(huart);	/*!< Overrun error       */
 80026ce:	2200      	movs	r2, #0
 80026d0:	9200      	str	r2, [sp, #0]
 80026d2:	6819      	ldr	r1, [r3, #0]
 80026d4:	9100      	str	r1, [sp, #0]
 80026d6:	6859      	ldr	r1, [r3, #4]
 80026d8:	9100      	str	r1, [sp, #0]
 80026da:	9900      	ldr	r1, [sp, #0]
		__HAL_UART_CLEAR_NEFLAG(huart);		/*!< Noise error         */
 80026dc:	9201      	str	r2, [sp, #4]
 80026de:	6819      	ldr	r1, [r3, #0]
 80026e0:	9101      	str	r1, [sp, #4]
 80026e2:	6859      	ldr	r1, [r3, #4]
 80026e4:	9101      	str	r1, [sp, #4]
 80026e6:	9901      	ldr	r1, [sp, #4]
		__HAL_UART_CLEAR_FEFLAG(huart);		/*!< Frame error         */
 80026e8:	9202      	str	r2, [sp, #8]
 80026ea:	681a      	ldr	r2, [r3, #0]

		uart2_buffer_gps.uart_tx_flag = true;
 80026ec:	4915      	ldr	r1, [pc, #84]	; (8002744 <HAL_UART_ErrorCallback+0x80>)
		__HAL_UART_CLEAR_FEFLAG(huart);		/*!< Frame error         */
 80026ee:	9202      	str	r2, [sp, #8]
 80026f0:	685b      	ldr	r3, [r3, #4]

		// restart receiving
		HAL_UART_Receive_DMA(huart, (uint8_t *)uart2_buffer_gps.RxData, UART_RX_BUFFER_SIZE);
 80026f2:	f44f 7280 	mov.w	r2, #256	; 0x100
		__HAL_UART_CLEAR_FEFLAG(huart);		/*!< Frame error         */
 80026f6:	9302      	str	r3, [sp, #8]
 80026f8:	9b02      	ldr	r3, [sp, #8]
		uart2_buffer_gps.uart_tx_flag = true;
 80026fa:	2301      	movs	r3, #1
		HAL_UART_Receive_DMA(huart, (uint8_t *)uart2_buffer_gps.RxData, UART_RX_BUFFER_SIZE);
 80026fc:	3104      	adds	r1, #4
		uart2_buffer_gps.uart_tx_flag = true;
 80026fe:	f881 3217 	strb.w	r3, [r1, #535]	; 0x217
		__HAL_UART_CLEAR_OREFLAG(huart);	/*!< Overrun error       */
		__HAL_UART_CLEAR_NEFLAG(huart);		/*!< Noise error         */
		__HAL_UART_CLEAR_FEFLAG(huart);		/*!< Frame error         */

		// restart receiving
		HAL_UART_Receive_DMA(huart, (uint8_t *)uart3_buffer_gsm.RxData, UART_RX_BUFFER_SIZE);
 8002702:	f7ff f9db 	bl	8001abc <HAL_UART_Receive_DMA>
	}

}
 8002706:	b007      	add	sp, #28
 8002708:	f85d fb04 	ldr.w	pc, [sp], #4
	else if(huart->Instance == USART3){	//	current UART
 800270c:	4a0e      	ldr	r2, [pc, #56]	; (8002748 <HAL_UART_ErrorCallback+0x84>)
 800270e:	4293      	cmp	r3, r2
 8002710:	d1f9      	bne.n	8002706 <HAL_UART_ErrorCallback+0x42>
		__HAL_UART_CLEAR_OREFLAG(huart);	/*!< Overrun error       */
 8002712:	2200      	movs	r2, #0
 8002714:	9203      	str	r2, [sp, #12]
 8002716:	6819      	ldr	r1, [r3, #0]
 8002718:	9103      	str	r1, [sp, #12]
 800271a:	6859      	ldr	r1, [r3, #4]
 800271c:	9103      	str	r1, [sp, #12]
 800271e:	9903      	ldr	r1, [sp, #12]
		__HAL_UART_CLEAR_NEFLAG(huart);		/*!< Noise error         */
 8002720:	9204      	str	r2, [sp, #16]
 8002722:	6819      	ldr	r1, [r3, #0]
 8002724:	9104      	str	r1, [sp, #16]
 8002726:	6859      	ldr	r1, [r3, #4]
 8002728:	9104      	str	r1, [sp, #16]
 800272a:	9904      	ldr	r1, [sp, #16]
		__HAL_UART_CLEAR_FEFLAG(huart);		/*!< Frame error         */
 800272c:	9205      	str	r2, [sp, #20]
 800272e:	681a      	ldr	r2, [r3, #0]
		HAL_UART_Receive_DMA(huart, (uint8_t *)uart3_buffer_gsm.RxData, UART_RX_BUFFER_SIZE);
 8002730:	4906      	ldr	r1, [pc, #24]	; (800274c <HAL_UART_ErrorCallback+0x88>)
		__HAL_UART_CLEAR_FEFLAG(huart);		/*!< Frame error         */
 8002732:	9205      	str	r2, [sp, #20]
 8002734:	685b      	ldr	r3, [r3, #4]
		HAL_UART_Receive_DMA(huart, (uint8_t *)uart3_buffer_gsm.RxData, UART_RX_BUFFER_SIZE);
 8002736:	f44f 7280 	mov.w	r2, #256	; 0x100
		__HAL_UART_CLEAR_FEFLAG(huart);		/*!< Frame error         */
 800273a:	9305      	str	r3, [sp, #20]
 800273c:	9b05      	ldr	r3, [sp, #20]
 800273e:	e7e0      	b.n	8002702 <HAL_UART_ErrorCallback+0x3e>
 8002740:	40004400 	.word	0x40004400
 8002744:	200002d8 	.word	0x200002d8
 8002748:	40004800 	.word	0x40004800
 800274c:	200005c4 	.word	0x200005c4

08002750 <FATAL_ERROR.constprop.0>:
 * @brief  GPS_GSM Tracker init.
 * @param  none
 * @retval none
 */

void __attribute__ ((noinline)) FATAL_ERROR(char * msg)
 8002750:	e7fe      	b.n	8002750 <FATAL_ERROR.constprop.0>
	...

08002754 <DBG_PRINT>:
	volatile char * ERROR_MSG = msg;
	while (1) {}
}

void DBG_PRINT(const char * arg)
{
 8002754:	b570      	push	{r4, r5, r6, lr}
 8002756:	4605      	mov	r5, r0
	HAL_UART_Transmit(uart2_buffer_gps.huart, (void*) "DBG: ", 5, 100);
 8002758:	4c0d      	ldr	r4, [pc, #52]	; (8002790 <DBG_PRINT+0x3c>)
 800275a:	2364      	movs	r3, #100	; 0x64
 800275c:	2205      	movs	r2, #5
 800275e:	490d      	ldr	r1, [pc, #52]	; (8002794 <DBG_PRINT+0x40>)
 8002760:	f8d4 0220 	ldr.w	r0, [r4, #544]	; 0x220
 8002764:	f7ff f94e 	bl	8001a04 <HAL_UART_Transmit>
	HAL_UART_Transmit(uart2_buffer_gps.huart, (void*) arg, strlen(arg), 100);
 8002768:	4628      	mov	r0, r5
 800276a:	f7fd fcef 	bl	800014c <strlen>
 800276e:	4629      	mov	r1, r5
 8002770:	b282      	uxth	r2, r0
 8002772:	2364      	movs	r3, #100	; 0x64
 8002774:	f8d4 0220 	ldr.w	r0, [r4, #544]	; 0x220
 8002778:	f7ff f944 	bl	8001a04 <HAL_UART_Transmit>
	HAL_UART_Transmit(uart2_buffer_gps.huart, (void*) "\x18\r\n", 3, 100);
 800277c:	f8d4 0220 	ldr.w	r0, [r4, #544]	; 0x220
 8002780:	2364      	movs	r3, #100	; 0x64
}
 8002782:	e8bd 4070 	ldmia.w	sp!, {r4, r5, r6, lr}
	HAL_UART_Transmit(uart2_buffer_gps.huart, (void*) "\x18\r\n", 3, 100);
 8002786:	2203      	movs	r2, #3
 8002788:	4903      	ldr	r1, [pc, #12]	; (8002798 <DBG_PRINT+0x44>)
 800278a:	f7ff b93b 	b.w	8001a04 <HAL_UART_Transmit>
 800278e:	bf00      	nop
 8002790:	200002d8 	.word	0x200002d8
 8002794:	08003b04 	.word	0x08003b04
 8002798:	08003b0a 	.word	0x08003b0a

0800279c <DBG_PRINT_TN>:
	} while (n && len < sizeof(Number));
	DBG_PRINT(Number);
}

void DBG_PRINT_TN(const char* arg,uint16_t num)
{
 800279c:	b537      	push	{r0, r1, r2, r4, r5, lr}
	char Number[6] = "00000\0";
 800279e:	4b1d      	ldr	r3, [pc, #116]	; (8002814 <DBG_PRINT_TN+0x78>)
{
 80027a0:	4605      	mov	r5, r0
	char Number[6] = "00000\0";
 80027a2:	6818      	ldr	r0, [r3, #0]
 80027a4:	889b      	ldrh	r3, [r3, #4]
 80027a6:	9000      	str	r0, [sp, #0]
 80027a8:	f8ad 3004 	strh.w	r3, [sp, #4]

	do
	{
		len++;
		Current--;
		*(Current) = '0' + num % 10;
 80027ac:	200a      	movs	r0, #10
	char Number[6] = "00000\0";
 80027ae:	2306      	movs	r3, #6
		*(Current) = '0' + num % 10;
 80027b0:	fbb1 f4f0 	udiv	r4, r1, r0
 80027b4:	fb00 1114 	mls	r1, r0, r4, r1
 80027b8:	eb0d 0203 	add.w	r2, sp, r3
 80027bc:	3130      	adds	r1, #48	; 0x30
 80027be:	f802 1c02 	strb.w	r1, [r2, #-2]
		num /= 10;
 80027c2:	b2a1      	uxth	r1, r4
	} while (num && len < sizeof(Number));
 80027c4:	b109      	cbz	r1, 80027ca <DBG_PRINT_TN+0x2e>
 80027c6:	3b01      	subs	r3, #1
 80027c8:	d1f2      	bne.n	80027b0 <DBG_PRINT_TN+0x14>

	HAL_UART_Transmit(uart2_buffer_gps.huart, (void*) "DBG: ", 5, 100);
 80027ca:	4c13      	ldr	r4, [pc, #76]	; (8002818 <DBG_PRINT_TN+0x7c>)
 80027cc:	2364      	movs	r3, #100	; 0x64
 80027ce:	2205      	movs	r2, #5
 80027d0:	4912      	ldr	r1, [pc, #72]	; (800281c <DBG_PRINT_TN+0x80>)
 80027d2:	f8d4 0220 	ldr.w	r0, [r4, #544]	; 0x220
 80027d6:	f7ff f915 	bl	8001a04 <HAL_UART_Transmit>
	HAL_UART_Transmit(uart2_buffer_gps.huart, (void*) arg, strlen(arg), 100);
 80027da:	4628      	mov	r0, r5
 80027dc:	f7fd fcb6 	bl	800014c <strlen>
 80027e0:	4629      	mov	r1, r5
 80027e2:	b282      	uxth	r2, r0
 80027e4:	2364      	movs	r3, #100	; 0x64
 80027e6:	f8d4 0220 	ldr.w	r0, [r4, #544]	; 0x220
 80027ea:	f7ff f90b 	bl	8001a04 <HAL_UART_Transmit>
	HAL_UART_Transmit(uart2_buffer_gps.huart, (void*) Number, strlen(Number), 100);
 80027ee:	4668      	mov	r0, sp
 80027f0:	f7fd fcac 	bl	800014c <strlen>
 80027f4:	4669      	mov	r1, sp
 80027f6:	b282      	uxth	r2, r0
 80027f8:	2364      	movs	r3, #100	; 0x64
 80027fa:	f8d4 0220 	ldr.w	r0, [r4, #544]	; 0x220
 80027fe:	f7ff f901 	bl	8001a04 <HAL_UART_Transmit>
	HAL_UART_Transmit(uart2_buffer_gps.huart, (void*) "\x18\r\n", 3, 100);
 8002802:	2364      	movs	r3, #100	; 0x64
 8002804:	2203      	movs	r2, #3
 8002806:	4906      	ldr	r1, [pc, #24]	; (8002820 <DBG_PRINT_TN+0x84>)
 8002808:	f8d4 0220 	ldr.w	r0, [r4, #544]	; 0x220
 800280c:	f7ff f8fa 	bl	8001a04 <HAL_UART_Transmit>
}
 8002810:	b003      	add	sp, #12
 8002812:	bd30      	pop	{r4, r5, pc}
 8002814:	08003b0e 	.word	0x08003b0e
 8002818:	200002d8 	.word	0x200002d8
 800281c:	08003b04 	.word	0x08003b04
 8002820:	08003b0a 	.word	0x08003b0a

08002824 <LoRa_Panic>:
void LoRa_Panic(void)
{
	RFM98_LoRa_data_t RFM98_LoRa_data;

	RFM98_LoRa_data.Modulation = LORA; //Modulation mode is LoRa
	RFM98_LoRa_data.COB = RFM98; //Module is RFM98
 8002824:	2305      	movs	r3, #5
{
 8002826:	b530      	push	{r4, r5, lr}
 8002828:	b093      	sub	sp, #76	; 0x4c
	RFM98_LoRa_data.COB = RFM98; //Module is RFM98
 800282a:	f88d 3012 	strb.w	r3, [sp, #18]
	RFM98_LoRa_data.Frequency = 434000; // Target frequency is 434MHz
 800282e:	4b21      	ldr	r3, [pc, #132]	; (80028b4 <LoRa_Panic+0x90>)
	RFM98_LoRa_data.Modulation = LORA; //Modulation mode is LoRa
 8002830:	2203      	movs	r2, #3
	RFM98_LoRa_data.Frequency = 434000; // Target frequency is 434MHz
 8002832:	9305      	str	r3, [sp, #20]
	RFM98_LoRa_data.OutputPower = 17; //Output power is 17dBm
 8002834:	2311      	movs	r3, #17
 8002836:	f88d 3018 	strb.w	r3, [sp, #24]
	RFM98_LoRa_data.PreambleLength = 16; //Preamble length is 16 bytes
 800283a:	2310      	movs	r3, #16
 800283c:	f8ad 301a 	strh.w	r3, [sp, #26]
	RFM98_LoRa_data.FixedPktLength = false; //Message length is variable
	RFM98_LoRa_data.PayloadLength = 21; //Message length is 21 bytes
 8002840:	2315      	movs	r3, #21
 8002842:	f88d 301e 	strb.w	r3, [sp, #30]
	RFM98_LoRa_data.CrcDisable = true; //Disable CRC for true
 8002846:	2301      	movs	r3, #1
 8002848:	f88d 301d 	strb.w	r3, [sp, #29]
	RFM98_LoRa_data.SFSel = SF9; //Spread spectrum factor is 9
	RFM98_LoRa_data.BWSel = BW125K; //Spread spectrum transmitting bandwidth is 125 KHz.
 800284c:	f88d 3034 	strb.w	r3, [sp, #52]	; 0x34
	RFM98_LoRa_data.CRSel = CR4_5; //Coding rate is 4/5

	RFM98W_LoRa_init(&RFM98_LoRa_data, &hspi2, QB_SPI1_CS_GPIO_Port,
 8002850:	f44f 7380 	mov.w	r3, #256	; 0x100
	RFM98_LoRa_data.FixedPktLength = false; //Message length is variable
 8002854:	2400      	movs	r4, #0
	RFM98_LoRa_data.Modulation = LORA; //Modulation mode is LoRa
 8002856:	f88d 2011 	strb.w	r2, [sp, #17]
	RFM98_LoRa_data.SFSel = SF9; //Spread spectrum factor is 9
 800285a:	f88d 2033 	strb.w	r2, [sp, #51]	; 0x33
	RFM98W_LoRa_init(&RFM98_LoRa_data, &hspi2, QB_SPI1_CS_GPIO_Port,
 800285e:	4a16      	ldr	r2, [pc, #88]	; (80028b8 <LoRa_Panic+0x94>)
 8002860:	4916      	ldr	r1, [pc, #88]	; (80028bc <LoRa_Panic+0x98>)
 8002862:	e88d 000c 	stmia.w	sp, {r2, r3}
 8002866:	a804      	add	r0, sp, #16
 8002868:	f44f 5380 	mov.w	r3, #4096	; 0x1000
 800286c:	4a14      	ldr	r2, [pc, #80]	; (80028c0 <LoRa_Panic+0x9c>)
	RFM98_LoRa_data.FixedPktLength = false; //Message length is variable
 800286e:	f88d 401c 	strb.w	r4, [sp, #28]
	RFM98_LoRa_data.CRSel = CR4_5; //Coding rate is 4/5
 8002872:	f88d 4035 	strb.w	r4, [sp, #53]	; 0x35
	RFM98W_LoRa_init(&RFM98_LoRa_data, &hspi2, QB_SPI1_CS_GPIO_Port,
 8002876:	f7ff fd09 	bl	800228c <RFM98W_LoRa_init>
	RST_RFM_GPIO_Port, RST_RFM_Pin);

	uint8_t i = 0;
	for (i = 0; i < RFM98_SIZE; ++i)
	{
		rfm98RegTable[i] = RFM98W_LoRa_ReadRegister(i);
 800287a:	4d12      	ldr	r5, [pc, #72]	; (80028c4 <LoRa_Panic+0xa0>)
 800287c:	b2e0      	uxtb	r0, r4
 800287e:	f7ff fe48 	bl	8002512 <RFM98W_LoRa_ReadRegister>
 8002882:	5528      	strb	r0, [r5, r4]
 8002884:	3401      	adds	r4, #1
	for (i = 0; i < RFM98_SIZE; ++i)
 8002886:	2c0d      	cmp	r4, #13
 8002888:	d1f8      	bne.n	800287c <LoRa_Panic+0x58>
	}

	char messageTx[] = "PANIC!";
 800288a:	4b0f      	ldr	r3, [pc, #60]	; (80028c8 <LoRa_Panic+0xa4>)
 800288c:	6818      	ldr	r0, [r3, #0]
 800288e:	889a      	ldrh	r2, [r3, #4]
 8002890:	799b      	ldrb	r3, [r3, #6]
 8002892:	9002      	str	r0, [sp, #8]
 8002894:	f8ad 200c 	strh.w	r2, [sp, #12]
 8002898:	f88d 300e 	strb.w	r3, [sp, #14]
	do
	{
		RFM98W_LoRa_bSendMessage(&RFM98_LoRa_data, (byte*) messageTx,
				strlen(messageTx)); //Transmit a packet of messageTx every one second
 800289c:	a802      	add	r0, sp, #8
 800289e:	f7fd fc55 	bl	800014c <strlen>
		RFM98W_LoRa_bSendMessage(&RFM98_LoRa_data, (byte*) messageTx,
 80028a2:	a902      	add	r1, sp, #8
 80028a4:	b2c2      	uxtb	r2, r0
 80028a6:	a804      	add	r0, sp, #16
 80028a8:	f7ff fd98 	bl	80023dc <RFM98W_LoRa_bSendMessage>
		HAL_Delay(50);
 80028ac:	2032      	movs	r0, #50	; 0x32
 80028ae:	f7fd fc9b 	bl	80001e8 <HAL_Delay>
 80028b2:	e7f3      	b.n	800289c <LoRa_Panic+0x78>
 80028b4:	00069f50 	.word	0x00069f50
 80028b8:	40010800 	.word	0x40010800
 80028bc:	200007f8 	.word	0x200007f8
 80028c0:	40010c00 	.word	0x40010c00
 80028c4:	200002c0 	.word	0x200002c0
 80028c8:	08003d09 	.word	0x08003d09

080028cc <RTC_WakeUp>:
	 HAL_PWR_DisableBkUpAccess();
	 */
}

bool RTC_WakeUp(void)
{
 80028cc:	b510      	push	{r4, lr}
	/*
	 RTC_Backup Backup;
	 HAL_PWR_EnableBkUpAccess();
	 Backup.Merged = HAL_RTCEx_BKUPRead(&hrtc, 0);
	 */
	Backup.Split.RTC_TimeLeft--;
 80028ce:	4b0b      	ldr	r3, [pc, #44]	; (80028fc <RTC_WakeUp+0x30>)
 80028d0:	885a      	ldrh	r2, [r3, #2]
 80028d2:	3a01      	subs	r2, #1
 80028d4:	b212      	sxth	r2, r2
	if (Backup.Split.RTC_TimeLeft <= 0)
 80028d6:	2a00      	cmp	r2, #0
	Backup.Split.RTC_TimeLeft--;
 80028d8:	805a      	strh	r2, [r3, #2]
	if (Backup.Split.RTC_TimeLeft <= 0)
 80028da:	dc0c      	bgt.n	80028f6 <RTC_WakeUp+0x2a>
	{
		if (Backup.Split.RTC_Interval == 0)
 80028dc:	f9b3 2000 	ldrsh.w	r2, [r3]
 80028e0:	b90a      	cbnz	r2, 80028e6 <RTC_WakeUp+0x1a>
			Backup.Split.RTC_Interval = DEFAULT_SLEEP_TIME;
 80028e2:	2205      	movs	r2, #5
 80028e4:	801a      	strh	r2, [r3, #0]
		Backup.Split.RTC_TimeLeft = Backup.Split.RTC_Interval;
		Result = true;
 80028e6:	2401      	movs	r4, #1
		Backup.Split.RTC_TimeLeft = Backup.Split.RTC_Interval;
 80028e8:	881a      	ldrh	r2, [r3, #0]
 80028ea:	805a      	strh	r2, [r3, #2]
	/*
	 HAL_RTCEx_BKUPWrite(&hrtc, 0, Backup.Merged);
	 HAL_PWR_DisableBkUpAccess();
	 */

	DBG_PRINT("BUDZE SIE");
 80028ec:	4804      	ldr	r0, [pc, #16]	; (8002900 <RTC_WakeUp+0x34>)
 80028ee:	f7ff ff31 	bl	8002754 <DBG_PRINT>
	return Result;
}
 80028f2:	4620      	mov	r0, r4
 80028f4:	bd10      	pop	{r4, pc}
	bool Result = false;
 80028f6:	2400      	movs	r4, #0
 80028f8:	e7f8      	b.n	80028ec <RTC_WakeUp+0x20>
 80028fa:	bf00      	nop
 80028fc:	200004fc 	.word	0x200004fc
 8002900:	08003b14 	.word	0x08003b14

08002904 <Increment_bcd>:

bool Increment_bcd(uint8_t * val, uint8_t bcd_limit)
{
 8002904:	b510      	push	{r4, lr}
	(*val)++;
 8002906:	7802      	ldrb	r2, [r0, #0]
 8002908:	1c54      	adds	r4, r2, #1
 800290a:	b2e4      	uxtb	r4, r4
	if ((*val & 0x0f) > 0x09)
 800290c:	f004 030f 	and.w	r3, r4, #15
 8002910:	2b09      	cmp	r3, #9
	{
		*val += 0x10 - 0x0a;
 8002912:	bf8a      	itet	hi
 8002914:	3207      	addhi	r2, #7
	(*val)++;
 8002916:	7004      	strbls	r4, [r0, #0]
		*val += 0x10 - 0x0a;
 8002918:	7002      	strbhi	r2, [r0, #0]
	}

	if (*val >= bcd_limit)
 800291a:	7803      	ldrb	r3, [r0, #0]
 800291c:	428b      	cmp	r3, r1
	{
		*val -= bcd_limit;
 800291e:	bf23      	ittte	cs
 8002920:	1a5b      	subcs	r3, r3, r1
 8002922:	7003      	strbcs	r3, [r0, #0]
		return true;
 8002924:	2001      	movcs	r0, #1
	}
	return false;
 8002926:	2000      	movcc	r0, #0
}
 8002928:	bd10      	pop	{r4, pc}
	...

0800292c <RTC_GoSleep>:

void RTC_GoSleep(void)
{
 800292c:	b51f      	push	{r0, r1, r2, r3, r4, lr}
	DBG_PRINT("IDE SPAC");
 800292e:	481d      	ldr	r0, [pc, #116]	; (80029a4 <RTC_GoSleep+0x78>)
 8002930:	f7ff ff10 	bl	8002754 <DBG_PRINT>

	RTC_TimeTypeDef Time;
	HAL_RTC_GetTime(&hrtc, &Time, RTC_FORMAT_BCD);
 8002934:	a901      	add	r1, sp, #4
 8002936:	2201      	movs	r2, #1
 8002938:	481b      	ldr	r0, [pc, #108]	; (80029a8 <RTC_GoSleep+0x7c>)
 800293a:	f7fe fbcf 	bl	80010dc <HAL_RTC_GetTime>

	RTC_AlarmTypeDef Alarm;
	Alarm.AlarmTime.Hours = Time.Hours;
 800293e:	f89d 3004 	ldrb.w	r3, [sp, #4]
#ifdef SLEEP_IN_MINUTES
	// w trybie minutowym nie ma szans na zachowanie rwnych interwaw wywoania
	// za to robiony jest rwny odstp.
	// ten tryb jest uywany tylko podczas testw, dokadno interwau jest mao istotna
	Alarm.AlarmTime.Minutes = Time.Minutes;
	if (Increment_bcd(&(Alarm.AlarmTime.Minutes), 0x60))
 8002942:	2160      	movs	r1, #96	; 0x60
	Alarm.AlarmTime.Hours = Time.Hours;
 8002944:	f88d 3008 	strb.w	r3, [sp, #8]
	Alarm.AlarmTime.Seconds = 0;
 8002948:	2300      	movs	r3, #0
 800294a:	f88d 300a 	strb.w	r3, [sp, #10]
	Alarm.Alarm = 0;
 800294e:	9303      	str	r3, [sp, #12]
	Alarm.AlarmTime.Minutes = Time.Minutes;
 8002950:	f89d 3005 	ldrb.w	r3, [sp, #5]
	if (Increment_bcd(&(Alarm.AlarmTime.Minutes), 0x60))
 8002954:	f10d 0009 	add.w	r0, sp, #9
	Alarm.AlarmTime.Minutes = Time.Minutes;
 8002958:	f88d 3009 	strb.w	r3, [sp, #9]
	if (Increment_bcd(&(Alarm.AlarmTime.Minutes), 0x60))
 800295c:	f7ff ffd2 	bl	8002904 <Increment_bcd>
 8002960:	b118      	cbz	r0, 800296a <RTC_GoSleep+0x3e>
#else
		Alarm.AlarmTime.Minutes = BUILD_MIN_BCD;
#endif
		Increment_bcd(&(Alarm.AlarmTime.Hours), 0x24);
 8002962:	2124      	movs	r1, #36	; 0x24
 8002964:	a802      	add	r0, sp, #8
 8002966:	f7ff ffcd 	bl	8002904 <Increment_bcd>

	HAL_RTC_SetAlarm_IT(&hrtc, &Alarm, RTC_FORMAT_BCD);
 800296a:	2201      	movs	r2, #1
 800296c:	a902      	add	r1, sp, #8
 800296e:	480e      	ldr	r0, [pc, #56]	; (80029a8 <RTC_GoSleep+0x7c>)
 8002970:	f7fe fcc2 	bl	80012f8 <HAL_RTC_SetAlarm_IT>
#ifdef SLEEP_MODE_ENABLE
	HAL_PWR_EnterSTOPMode(PWR_LOWPOWERREGULATOR_ON, PWR_SLEEPENTRY_WFE);
 8002974:	2102      	movs	r1, #2
 8002976:	2001      	movs	r0, #1
 8002978:	f7fd ff00 	bl	800077c <HAL_PWR_EnterSTOPMode>
	HAL_GPIO_WritePin(QB_DEBUG_LED_GREEN_GPIO_Port, QB_DEBUG_LED_GREEN_Pin,GPIO_PIN_SET);
 800297c:	2201      	movs	r2, #1
 800297e:	2180      	movs	r1, #128	; 0x80
 8002980:	480a      	ldr	r0, [pc, #40]	; (80029ac <RTC_GoSleep+0x80>)
 8002982:	f7fd fee9 	bl	8000758 <HAL_GPIO_WritePin>
	HAL_Delay(50);
 8002986:	2032      	movs	r0, #50	; 0x32
 8002988:	f7fd fc2e 	bl	80001e8 <HAL_Delay>
	HAL_GPIO_WritePin(QB_DEBUG_LED_GREEN_GPIO_Port, QB_DEBUG_LED_GREEN_Pin,GPIO_PIN_RESET);
 800298c:	2200      	movs	r2, #0
 800298e:	2180      	movs	r1, #128	; 0x80
 8002990:	4806      	ldr	r0, [pc, #24]	; (80029ac <RTC_GoSleep+0x80>)
 8002992:	f7fd fee1 	bl	8000758 <HAL_GPIO_WritePin>
	HAL_RTC_AlarmIRQHandler(&hrtc);
 8002996:	4804      	ldr	r0, [pc, #16]	; (80029a8 <RTC_GoSleep+0x7c>)
 8002998:	f7fe fd20 	bl	80013dc <HAL_RTC_AlarmIRQHandler>
#endif
}
 800299c:	b005      	add	sp, #20
 800299e:	f85d fb04 	ldr.w	pc, [sp], #4
 80029a2:	bf00      	nop
 80029a4:	08003b1e 	.word	0x08003b1e
 80029a8:	200007e4 	.word	0x200007e4
 80029ac:	40010800 	.word	0x40010800

080029b0 <GPS_GSM_Tracker_init>:

void GPS_GSM_Tracker_init(void)
{
 80029b0:	b537      	push	{r0, r1, r2, r4, r5, lr}
	ringBuffer_init_DMA(&uart2_buffer_gps, &huart2);
 80029b2:	4911      	ldr	r1, [pc, #68]	; (80029f8 <GPS_GSM_Tracker_init+0x48>)
 80029b4:	4811      	ldr	r0, [pc, #68]	; (80029fc <GPS_GSM_Tracker_init+0x4c>)
 80029b6:	f7ff fdaf 	bl	8002518 <ringBuffer_init_DMA>
	ringBuffer_init_DMA(&uart3_buffer_gsm, &huart3);
 80029ba:	4911      	ldr	r1, [pc, #68]	; (8002a00 <GPS_GSM_Tracker_init+0x50>)
 80029bc:	4811      	ldr	r0, [pc, #68]	; (8002a04 <GPS_GSM_Tracker_init+0x54>)
 80029be:	f7ff fdab 	bl	8002518 <ringBuffer_init_DMA>
 80029c2:	240c      	movs	r4, #12

	int var = 0;
	for (var = 0; var < 12; ++var)
	{
		HAL_GPIO_TogglePin(QB_DEBUG_LED_GREEN_GPIO_Port,
 80029c4:	4d10      	ldr	r5, [pc, #64]	; (8002a08 <GPS_GSM_Tracker_init+0x58>)
 80029c6:	2180      	movs	r1, #128	; 0x80
 80029c8:	4628      	mov	r0, r5
 80029ca:	f7fd feca 	bl	8000762 <HAL_GPIO_TogglePin>
		QB_DEBUG_LED_GREEN_Pin);
		HAL_Delay(50);
 80029ce:	2032      	movs	r0, #50	; 0x32
 80029d0:	f7fd fc0a 	bl	80001e8 <HAL_Delay>
	for (var = 0; var < 12; ++var)
 80029d4:	3c01      	subs	r4, #1
 80029d6:	d1f6      	bne.n	80029c6 <GPS_GSM_Tracker_init+0x16>
	}

	// GPS Init
	GPS_NMEA_init_simple(&gps_data, &uart2_buffer_gps);
 80029d8:	4908      	ldr	r1, [pc, #32]	; (80029fc <GPS_GSM_Tracker_init+0x4c>)
 80029da:	480c      	ldr	r0, [pc, #48]	; (8002a0c <GPS_GSM_Tracker_init+0x5c>)
 80029dc:	f7ff f9e6 	bl	8001dac <GPS_NMEA_init_simple>

#ifdef SLEEP_MODE_ENABLE
static void SystemPower_Config(void)
{
	/* Enable Power Control clock */
	__HAL_RCC_PWR_CLK_ENABLE()
 80029e0:	4b0b      	ldr	r3, [pc, #44]	; (8002a10 <GPS_GSM_Tracker_init+0x60>)
 80029e2:	69da      	ldr	r2, [r3, #28]
 80029e4:	f042 5280 	orr.w	r2, r2, #268435456	; 0x10000000
 80029e8:	61da      	str	r2, [r3, #28]
 80029ea:	69db      	ldr	r3, [r3, #28]
 80029ec:	f003 5380 	and.w	r3, r3, #268435456	; 0x10000000
 80029f0:	9301      	str	r3, [sp, #4]
 80029f2:	9b01      	ldr	r3, [sp, #4]
}
 80029f4:	b003      	add	sp, #12
 80029f6:	bd30      	pop	{r4, r5, pc}
 80029f8:	20000918 	.word	0x20000918
 80029fc:	200002d8 	.word	0x200002d8
 8002a00:	200008d8 	.word	0x200008d8
 8002a04:	200005c0 	.word	0x200005c0
 8002a08:	40010800 	.word	0x40010800
 8002a0c:	20000504 	.word	0x20000504
 8002a10:	40021000 	.word	0x40021000

08002a14 <GPRS_Command>:
{
 8002a14:	b570      	push	{r4, r5, r6, lr}
 8002a16:	460c      	mov	r4, r1
	switch (*State)
 8002a18:	7809      	ldrb	r1, [r1, #0]
{
 8002a1a:	4606      	mov	r6, r0
	switch (*State)
 8002a1c:	2901      	cmp	r1, #1
{
 8002a1e:	9d05      	ldr	r5, [sp, #20]
	switch (*State)
 8002a20:	d006      	beq.n	8002a30 <GPRS_Command+0x1c>
 8002a22:	d302      	bcc.n	8002a2a <GPRS_Command+0x16>
 8002a24:	2903      	cmp	r1, #3
 8002a26:	d014      	beq.n	8002a52 <GPRS_Command+0x3e>
 8002a28:	bd70      	pop	{r4, r5, r6, pc}
		*Timeout = DefaultTimeout;
 8002a2a:	6013      	str	r3, [r2, #0]
		(*State)++;
 8002a2c:	2301      	movs	r3, #1
 8002a2e:	7023      	strb	r3, [r4, #0]
		ringBuffer_flush(GSM);
 8002a30:	4630      	mov	r0, r6
 8002a32:	f7ff fded 	bl	8002610 <ringBuffer_flush>
		HAL_UART_Transmit(GSM->huart, (void*) Command, strlen(Command), 100);
 8002a36:	9804      	ldr	r0, [sp, #16]
 8002a38:	f7fd fb88 	bl	800014c <strlen>
 8002a3c:	2364      	movs	r3, #100	; 0x64
 8002a3e:	b282      	uxth	r2, r0
 8002a40:	9904      	ldr	r1, [sp, #16]
 8002a42:	f8d6 0220 	ldr.w	r0, [r6, #544]	; 0x220
 8002a46:	f7fe ffdd 	bl	8001a04 <HAL_UART_Transmit>
		(*State)++;
 8002a4a:	7823      	ldrb	r3, [r4, #0]
 8002a4c:	3301      	adds	r3, #1
			*State = JS_Error;
 8002a4e:	7023      	strb	r3, [r4, #0]
 8002a50:	bd70      	pop	{r4, r5, r6, pc}
		memset(Response, 0, 256);
 8002a52:	f44f 7280 	mov.w	r2, #256	; 0x100
 8002a56:	2100      	movs	r1, #0
 8002a58:	4628      	mov	r0, r5
 8002a5a:	f000 ffbc 	bl	80039d6 <memset>
		int Available = ringBuffer_checkAvailable(GSM);
 8002a5e:	4630      	mov	r0, r6
 8002a60:	f7ff fdc6 	bl	80025f0 <ringBuffer_checkAvailable>
		ringBuffer_readBytes(GSM, (void*) Response, Available);
 8002a64:	4629      	mov	r1, r5
 8002a66:	4602      	mov	r2, r0
 8002a68:	4630      	mov	r0, r6
 8002a6a:	f7ff fdb2 	bl	80025d2 <ringBuffer_readBytes>
		int RespLen = strlen(Response);
 8002a6e:	4628      	mov	r0, r5
 8002a70:	f7fd fb6c 	bl	800014c <strlen>
 8002a74:	4606      	mov	r6, r0
		int OkayLen = strlen(Expect);
 8002a76:	9806      	ldr	r0, [sp, #24]
 8002a78:	f7fd fb68 	bl	800014c <strlen>
		if ((RespLen >= OkayLen
 8002a7c:	4286      	cmp	r6, r0
		int OkayLen = strlen(Expect);
 8002a7e:	4602      	mov	r2, r0
		if ((RespLen >= OkayLen
 8002a80:	db05      	blt.n	8002a8e <GPRS_Command+0x7a>
				&& memcmp(Expect, &Response[RespLen - OkayLen], OkayLen) == 0)
 8002a82:	1a31      	subs	r1, r6, r0
 8002a84:	4429      	add	r1, r5
 8002a86:	9806      	ldr	r0, [sp, #24]
 8002a88:	f000 ff96 	bl	80039b8 <memcmp>
 8002a8c:	b100      	cbz	r0, 8002a90 <GPRS_Command+0x7c>
				|| (RespLen == 0))
 8002a8e:	b90e      	cbnz	r6, 8002a94 <GPRS_Command+0x80>
			*State = JS_Success;
 8002a90:	2304      	movs	r3, #4
 8002a92:	e7dc      	b.n	8002a4e <GPRS_Command+0x3a>
			*State = JS_Error;
 8002a94:	2305      	movs	r3, #5
 8002a96:	e7da      	b.n	8002a4e <GPRS_Command+0x3a>

08002a98 <itoa>:
{
 8002a98:	b5f0      	push	{r4, r5, r6, r7, lr}
	str[10] = 0;
 8002a9a:	2400      	movs	r4, #0
 8002a9c:	4b0b      	ldr	r3, [pc, #44]	; (8002acc <itoa+0x34>)
 8002a9e:	729c      	strb	r4, [r3, #10]
 8002aa0:	240a      	movs	r4, #10
		str[idx--] = '0' + (num % 10);
 8002aa2:	4626      	mov	r6, r4
 8002aa4:	fbb0 f5f6 	udiv	r5, r0, r6
 8002aa8:	fb06 0015 	mls	r0, r6, r5, r0
 8002aac:	3030      	adds	r0, #48	; 0x30
 8002aae:	5518      	strb	r0, [r3, r4]
 8002ab0:	f1c4 070b 	rsb	r7, r4, #11
 8002ab4:	f104 3eff 	add.w	lr, r4, #4294967295
	} while (num);
 8002ab8:	4628      	mov	r0, r5
 8002aba:	b925      	cbnz	r5, 8002ac6 <itoa+0x2e>
	*buf = &str[idx + 1];
 8002abc:	4423      	add	r3, r4
 8002abe:	600b      	str	r3, [r1, #0]
	if(len != NULL)
 8002ac0:	b102      	cbz	r2, 8002ac4 <itoa+0x2c>
		*len = curr_len;
 8002ac2:	7017      	strb	r7, [r2, #0]
 8002ac4:	bdf0      	pop	{r4, r5, r6, r7, pc}
 8002ac6:	4674      	mov	r4, lr
 8002ac8:	e7ec      	b.n	8002aa4 <itoa+0xc>
 8002aca:	bf00      	nop
 8002acc:	20000040 	.word	0x20000040

08002ad0 <GetPendingSMS>:
{
 8002ad0:	b510      	push	{r4, lr}
	if (RxMsg == NULL)
 8002ad2:	b908      	cbnz	r0, 8002ad8 <GetPendingSMS+0x8>
		FATAL_ERROR("GetPendingSMS");
 8002ad4:	f7ff fe3c 	bl	8002750 <FATAL_ERROR.constprop.0>
	RxMsg = strstr(RxMsg, "+CPMS:");
 8002ad8:	490f      	ldr	r1, [pc, #60]	; (8002b18 <GetPendingSMS+0x48>)
 8002ada:	f000 ffd0 	bl	8003a7e <strstr>
	if (RxMsg == NULL)
 8002ade:	4604      	mov	r4, r0
 8002ae0:	b1c0      	cbz	r0, 8002b14 <GetPendingSMS+0x44>
	CMD_Start = strstr(RxMsg, "+CPMS: ");
 8002ae2:	490e      	ldr	r1, [pc, #56]	; (8002b1c <GetPendingSMS+0x4c>)
 8002ae4:	f000 ffcb 	bl	8003a7e <strstr>
	uint8_t SmsCnt = 0;
 8002ae8:	2400      	movs	r4, #0
	CMD_Start += 7;
 8002aea:	3007      	adds	r0, #7
		if (*CMD_Start < '0' || *CMD_Start > '9')
 8002aec:	7803      	ldrb	r3, [r0, #0]
 8002aee:	f1a3 0230 	sub.w	r2, r3, #48	; 0x30
 8002af2:	2a09      	cmp	r2, #9
 8002af4:	d80e      	bhi.n	8002b14 <GetPendingSMS+0x44>
		SmsCnt = SmsCnt * 10 + *CMD_Start - '0';
 8002af6:	eb04 0484 	add.w	r4, r4, r4, lsl #2
 8002afa:	eb03 0444 	add.w	r4, r3, r4, lsl #1
		if (*CMD_Start == ',')	//	'\0'
 8002afe:	f810 3f01 	ldrb.w	r3, [r0, #1]!
		SmsCnt = SmsCnt * 10 + *CMD_Start - '0';
 8002b02:	3c30      	subs	r4, #48	; 0x30
		if (*CMD_Start == ',')	//	'\0'
 8002b04:	2b2c      	cmp	r3, #44	; 0x2c
		SmsCnt = SmsCnt * 10 + *CMD_Start - '0';
 8002b06:	f004 04ff 	and.w	r4, r4, #255	; 0xff
		if (*CMD_Start == ',')	//	'\0'
 8002b0a:	d1ef      	bne.n	8002aec <GetPendingSMS+0x1c>
			DBG_PRINT_TN("SMS OCZEKUJACYH: ",SmsCnt);
 8002b0c:	4621      	mov	r1, r4
 8002b0e:	4804      	ldr	r0, [pc, #16]	; (8002b20 <GetPendingSMS+0x50>)
 8002b10:	f7ff fe44 	bl	800279c <DBG_PRINT_TN>
}
 8002b14:	4620      	mov	r0, r4
 8002b16:	bd10      	pop	{r4, pc}
 8002b18:	08003b27 	.word	0x08003b27
 8002b1c:	08003b2e 	.word	0x08003b2e
 8002b20:	08003b36 	.word	0x08003b36

08002b24 <GetMaxSMSCount>:
{
 8002b24:	b510      	push	{r4, lr}
	if (RxMsg == NULL)
 8002b26:	b908      	cbnz	r0, 8002b2c <GetMaxSMSCount+0x8>
		FATAL_ERROR("GetMaxSMSCount");
 8002b28:	f7ff fe12 	bl	8002750 <FATAL_ERROR.constprop.0>
	RxMsg = strstr(RxMsg, "+CPMS:");
 8002b2c:	490f      	ldr	r1, [pc, #60]	; (8002b6c <GetMaxSMSCount+0x48>)
 8002b2e:	f000 ffa6 	bl	8003a7e <strstr>
	if (RxMsg == NULL)
 8002b32:	4604      	mov	r4, r0
 8002b34:	b1c0      	cbz	r0, 8002b68 <GetMaxSMSCount+0x44>
	CMD_Start = strstr(RxMsg, ",");
 8002b36:	212c      	movs	r1, #44	; 0x2c
 8002b38:	f000 ff64 	bl	8003a04 <strchr>
	uint8_t SmsCnt = 0;
 8002b3c:	2400      	movs	r4, #0
	CMD_Start += 1;
 8002b3e:	3001      	adds	r0, #1
		if (*CMD_Start < '0' || *CMD_Start > '9')
 8002b40:	7803      	ldrb	r3, [r0, #0]
 8002b42:	f1a3 0230 	sub.w	r2, r3, #48	; 0x30
 8002b46:	2a09      	cmp	r2, #9
 8002b48:	d80e      	bhi.n	8002b68 <GetMaxSMSCount+0x44>
		SmsCnt = SmsCnt * 10 + *CMD_Start - '0';
 8002b4a:	eb04 0484 	add.w	r4, r4, r4, lsl #2
 8002b4e:	eb03 0444 	add.w	r4, r3, r4, lsl #1
		if (*CMD_Start == ',')	//	'\0'
 8002b52:	f810 3f01 	ldrb.w	r3, [r0, #1]!
		SmsCnt = SmsCnt * 10 + *CMD_Start - '0';
 8002b56:	3c30      	subs	r4, #48	; 0x30
		if (*CMD_Start == ',')	//	'\0'
 8002b58:	2b2c      	cmp	r3, #44	; 0x2c
		SmsCnt = SmsCnt * 10 + *CMD_Start - '0';
 8002b5a:	f004 04ff 	and.w	r4, r4, #255	; 0xff
		if (*CMD_Start == ',')	//	'\0'
 8002b5e:	d1ef      	bne.n	8002b40 <GetMaxSMSCount+0x1c>
			DBG_PRINT_TN("POJEMNOSC SKRZYNKI: ",SmsCnt);
 8002b60:	4621      	mov	r1, r4
 8002b62:	4803      	ldr	r0, [pc, #12]	; (8002b70 <GetMaxSMSCount+0x4c>)
 8002b64:	f7ff fe1a 	bl	800279c <DBG_PRINT_TN>
}
 8002b68:	4620      	mov	r0, r4
 8002b6a:	bd10      	pop	{r4, pc}
 8002b6c:	08003b27 	.word	0x08003b27
 8002b70:	08003b48 	.word	0x08003b48

08002b74 <GPRS_Task>:
{
 8002b74:	e92d 41f0 	stmdb	sp!, {r4, r5, r6, r7, r8, lr}
 8002b78:	b086      	sub	sp, #24
 8002b7a:	460e      	mov	r6, r1
 8002b7c:	4615      	mov	r5, r2
 8002b7e:	9f0c      	ldr	r7, [sp, #48]	; 0x30
	if (!Run)
 8002b80:	4680      	mov	r8, r0
 8002b82:	4c92      	ldr	r4, [pc, #584]	; (8002dcc <GPRS_Task+0x258>)
 8002b84:	b968      	cbnz	r0, 8002ba2 <GPRS_Task+0x2e>
		if (Job != TJ_Standby)
 8002b86:	7c23      	ldrb	r3, [r4, #16]
		GlobalRetries = 0;
 8002b88:	60e0      	str	r0, [r4, #12]
		if (Job != TJ_Standby)
 8002b8a:	b133      	cbz	r3, 8002b9a <GPRS_Task+0x26>
			HAL_GPIO_WritePin(QB_GSM_PWR_ON_GPIO_Port, QB_GSM_PWR_ON_Pin,
 8002b8c:	4602      	mov	r2, r0
 8002b8e:	2102      	movs	r1, #2
 8002b90:	488f      	ldr	r0, [pc, #572]	; (8002dd0 <GPRS_Task+0x25c>)
 8002b92:	f7fd fde1 	bl	8000758 <HAL_GPIO_WritePin>
			Job = TJ_Standby;
 8002b96:	f884 8010 	strb.w	r8, [r4, #16]
	return Job;
 8002b9a:	7c20      	ldrb	r0, [r4, #16]
}
 8002b9c:	b006      	add	sp, #24
 8002b9e:	e8bd 81f0 	ldmia.w	sp!, {r4, r5, r6, r7, r8, pc}
	switch (Job)
 8002ba2:	7c22      	ldrb	r2, [r4, #16]
 8002ba4:	2a1a      	cmp	r2, #26
 8002ba6:	d822      	bhi.n	8002bee <GPRS_Task+0x7a>
 8002ba8:	e8df f012 	tbh	[pc, r2, lsl #1]
 8002bac:	001d001b 	.word	0x001d001b
 8002bb0:	0041003a 	.word	0x0041003a
 8002bb4:	0052004d 	.word	0x0052004d
 8002bb8:	00680063 	.word	0x00680063
 8002bbc:	0072006d 	.word	0x0072006d
 8002bc0:	007c0077 	.word	0x007c0077
 8002bc4:	00860081 	.word	0x00860081
 8002bc8:	0098008b 	.word	0x0098008b
 8002bcc:	00b0009d 	.word	0x00b0009d
 8002bd0:	00c100b6 	.word	0x00c100b6
 8002bd4:	010100da 	.word	0x010100da
 8002bd8:	01420103 	.word	0x01420103
 8002bdc:	015a0052 	.word	0x015a0052
 8002be0:	0092      	.short	0x0092
		Job = TJ_PowerOnInit;
 8002be2:	2301      	movs	r3, #1
 8002be4:	7423      	strb	r3, [r4, #16]
		switch (State)
 8002be6:	7c65      	ldrb	r5, [r4, #17]
 8002be8:	b16d      	cbz	r5, 8002c06 <GPRS_Task+0x92>
 8002bea:	2d03      	cmp	r5, #3
 8002bec:	d015      	beq.n	8002c1a <GPRS_Task+0xa6>
	switch (State)
 8002bee:	7c63      	ldrb	r3, [r4, #17]
 8002bf0:	2b05      	cmp	r3, #5
 8002bf2:	f200 8168 	bhi.w	8002ec6 <GPRS_Task+0x352>
 8002bf6:	e8df f013 	tbh	[pc, r3, lsl #1]
 8002bfa:	015b      	.short	0x015b
 8002bfc:	015e0166 	.word	0x015e0166
 8002c00:	01430166 	.word	0x01430166
 8002c04:	014b      	.short	0x014b
			HAL_GPIO_WritePin(QB_GSM_PWR_ON_GPIO_Port, QB_GSM_PWR_ON_Pin,
 8002c06:	2201      	movs	r2, #1
 8002c08:	2102      	movs	r1, #2
 8002c0a:	4871      	ldr	r0, [pc, #452]	; (8002dd0 <GPRS_Task+0x25c>)
 8002c0c:	f7fd fda4 	bl	8000758 <HAL_GPIO_WritePin>
			Timeout = 80;
 8002c10:	2350      	movs	r3, #80	; 0x50
			Retries = 0;
 8002c12:	61a5      	str	r5, [r4, #24]
			Timeout = 80;
 8002c14:	6163      	str	r3, [r4, #20]
			State = JS_WaitForTimeout;
 8002c16:	2302      	movs	r3, #2
 8002c18:	e000      	b.n	8002c1c <GPRS_Task+0xa8>
			State = JS_Success;
 8002c1a:	2304      	movs	r3, #4
 8002c1c:	7463      	strb	r3, [r4, #17]
			break;
 8002c1e:	e7e6      	b.n	8002bee <GPRS_Task+0x7a>
		GPRS_Command(GSM, &State, &Timeout, SIM_TIMEOUT_LONG, "ATZ\r\n",
 8002c20:	4b6c      	ldr	r3, [pc, #432]	; (8002dd4 <GPRS_Task+0x260>)
 8002c22:	9501      	str	r5, [sp, #4]
 8002c24:	9302      	str	r3, [sp, #8]
 8002c26:	4b6c      	ldr	r3, [pc, #432]	; (8002dd8 <GPRS_Task+0x264>)
		GPRS_Command(GSM, &State, &Timeout, SIM_TIMEOUT_LONG, "AT+CGATT=1\r\n",
 8002c28:	9300      	str	r3, [sp, #0]
 8002c2a:	2396      	movs	r3, #150	; 0x96
 8002c2c:	e005      	b.n	8002c3a <GPRS_Task+0xc6>
		GPRS_Command(GSM, &State, &Timeout, SIM_TIMEOUT_SHORT, "ATE0\r\n",
 8002c2e:	4b6b      	ldr	r3, [pc, #428]	; (8002ddc <GPRS_Task+0x268>)
 8002c30:	9501      	str	r5, [sp, #4]
 8002c32:	9302      	str	r3, [sp, #8]
 8002c34:	4b6a      	ldr	r3, [pc, #424]	; (8002de0 <GPRS_Task+0x26c>)
 8002c36:	9300      	str	r3, [sp, #0]
 8002c38:	2305      	movs	r3, #5
 8002c3a:	4a6a      	ldr	r2, [pc, #424]	; (8002de4 <GPRS_Task+0x270>)
 8002c3c:	4630      	mov	r0, r6
 8002c3e:	1ed1      	subs	r1, r2, #3
 8002c40:	f7ff fee8 	bl	8002a14 <GPRS_Command>
		break;
 8002c44:	e7d3      	b.n	8002bee <GPRS_Task+0x7a>
		GPRS_Command(GSM, &State, &Timeout, SIM_TIMEOUT_SHORT, "AT+CMGF=1\r\n",
 8002c46:	4b65      	ldr	r3, [pc, #404]	; (8002ddc <GPRS_Task+0x268>)
 8002c48:	9501      	str	r5, [sp, #4]
 8002c4a:	9302      	str	r3, [sp, #8]
 8002c4c:	4b66      	ldr	r3, [pc, #408]	; (8002de8 <GPRS_Task+0x274>)
 8002c4e:	e7f2      	b.n	8002c36 <GPRS_Task+0xc2>
		if ((*Flags) & GPRS_FLAG_GET_LOCATION)
 8002c50:	783b      	ldrb	r3, [r7, #0]
 8002c52:	07d9      	lsls	r1, r3, #31
 8002c54:	d502      	bpl.n	8002c5c <GPRS_Task+0xe8>
			Job = TJ_EnableGPRS;
 8002c56:	2306      	movs	r3, #6
			Job = TJ_PowerOnInit;
 8002c58:	7423      	strb	r3, [r4, #16]
			break;
 8002c5a:	e7c8      	b.n	8002bee <GPRS_Task+0x7a>
		else if ((*Flags) & GPRS_FLAG_SEND_SMS)
 8002c5c:	079a      	lsls	r2, r3, #30
 8002c5e:	d501      	bpl.n	8002c64 <GPRS_Task+0xf0>
			Job = TJ_SendSMSPhoneNumber;
 8002c60:	230f      	movs	r3, #15
 8002c62:	e7f9      	b.n	8002c58 <GPRS_Task+0xe4>
		else if ((*Flags) & GPRS_FLAG_READ_SMS)
 8002c64:	075b      	lsls	r3, r3, #29
			SmsNo = 1;//1
 8002c66:	bf49      	itett	mi
 8002c68:	2301      	movmi	r3, #1
			Job = TJ_Ready;
 8002c6a:	2318      	movpl	r3, #24
			SmsNo = 1;//1
 8002c6c:	83a3      	strhmi	r3, [r4, #28]
			Job = TJ_GetSMSCount;
 8002c6e:	2312      	movmi	r3, #18
 8002c70:	e7f2      	b.n	8002c58 <GPRS_Task+0xe4>
		GPRS_Command(GSM, &State, &Timeout, SIM_TIMEOUT_LONG, "AT+CGATT=1\r\n",
 8002c72:	4b5a      	ldr	r3, [pc, #360]	; (8002ddc <GPRS_Task+0x268>)
 8002c74:	9501      	str	r5, [sp, #4]
 8002c76:	9302      	str	r3, [sp, #8]
 8002c78:	4b5c      	ldr	r3, [pc, #368]	; (8002dec <GPRS_Task+0x278>)
 8002c7a:	e7d5      	b.n	8002c28 <GPRS_Task+0xb4>
		GPRS_Command(GSM, &State, &Timeout, SIM_TIMEOUT_SHORT,
 8002c7c:	4b57      	ldr	r3, [pc, #348]	; (8002ddc <GPRS_Task+0x268>)
 8002c7e:	9501      	str	r5, [sp, #4]
 8002c80:	9302      	str	r3, [sp, #8]
 8002c82:	4b5b      	ldr	r3, [pc, #364]	; (8002df0 <GPRS_Task+0x27c>)
 8002c84:	e7d7      	b.n	8002c36 <GPRS_Task+0xc2>
		GPRS_Command(GSM, &State, &Timeout, SIM_TIMEOUT_SHORT,
 8002c86:	4b55      	ldr	r3, [pc, #340]	; (8002ddc <GPRS_Task+0x268>)
 8002c88:	9501      	str	r5, [sp, #4]
 8002c8a:	9302      	str	r3, [sp, #8]
 8002c8c:	4b59      	ldr	r3, [pc, #356]	; (8002df4 <GPRS_Task+0x280>)
 8002c8e:	e7d2      	b.n	8002c36 <GPRS_Task+0xc2>
		GPRS_Command(GSM, &State, &Timeout, SIM_TIMEOUT_SHORT,
 8002c90:	4b52      	ldr	r3, [pc, #328]	; (8002ddc <GPRS_Task+0x268>)
 8002c92:	9501      	str	r5, [sp, #4]
 8002c94:	9302      	str	r3, [sp, #8]
 8002c96:	4b58      	ldr	r3, [pc, #352]	; (8002df8 <GPRS_Task+0x284>)
 8002c98:	e7cd      	b.n	8002c36 <GPRS_Task+0xc2>
		GPRS_Command(GSM, &State, &Timeout, SIM_TIMEOUT_SHORT,
 8002c9a:	4b50      	ldr	r3, [pc, #320]	; (8002ddc <GPRS_Task+0x268>)
 8002c9c:	9501      	str	r5, [sp, #4]
 8002c9e:	9302      	str	r3, [sp, #8]
 8002ca0:	4b56      	ldr	r3, [pc, #344]	; (8002dfc <GPRS_Task+0x288>)
 8002ca2:	e7c8      	b.n	8002c36 <GPRS_Task+0xc2>
		GPRS_Command(GSM, &State, &Timeout, SIM_TIMEOUT_LONG,
 8002ca4:	4b4d      	ldr	r3, [pc, #308]	; (8002ddc <GPRS_Task+0x268>)
 8002ca6:	9501      	str	r5, [sp, #4]
 8002ca8:	9302      	str	r3, [sp, #8]
 8002caa:	4b55      	ldr	r3, [pc, #340]	; (8002e00 <GPRS_Task+0x28c>)
 8002cac:	e7bc      	b.n	8002c28 <GPRS_Task+0xb4>
		GPRS_Command(GSM, &State, &Timeout, SIM_TIMEOUT_LONG,
 8002cae:	4b4b      	ldr	r3, [pc, #300]	; (8002ddc <GPRS_Task+0x268>)
 8002cb0:	9501      	str	r5, [sp, #4]
 8002cb2:	9302      	str	r3, [sp, #8]
 8002cb4:	4b53      	ldr	r3, [pc, #332]	; (8002e04 <GPRS_Task+0x290>)
 8002cb6:	e7b7      	b.n	8002c28 <GPRS_Task+0xb4>
		GPRS_Command(GSM, &State, &Timeout, SIM_TIMEOUT_LONG,
 8002cb8:	4b48      	ldr	r3, [pc, #288]	; (8002ddc <GPRS_Task+0x268>)
 8002cba:	9501      	str	r5, [sp, #4]
 8002cbc:	9302      	str	r3, [sp, #8]
 8002cbe:	4b52      	ldr	r3, [pc, #328]	; (8002e08 <GPRS_Task+0x294>)
 8002cc0:	e7b2      	b.n	8002c28 <GPRS_Task+0xb4>
		Job = TJ_NextTask;
 8002cc2:	2305      	movs	r3, #5
 8002cc4:	7423      	strb	r3, [r4, #16]
		*Flags = (*Flags) & ~ GPRS_FLAG_GET_LOCATION;
 8002cc6:	783b      	ldrb	r3, [r7, #0]
 8002cc8:	f023 0301 	bic.w	r3, r3, #1
 8002ccc:	703b      	strb	r3, [r7, #0]
		break;
 8002cce:	e78e      	b.n	8002bee <GPRS_Task+0x7a>
		HAL_GPIO_WritePin(QB_GSM_PWR_ON_GPIO_Port, QB_GSM_PWR_ON_Pin,
 8002cd0:	2200      	movs	r2, #0
 8002cd2:	2102      	movs	r1, #2
 8002cd4:	483e      	ldr	r0, [pc, #248]	; (8002dd0 <GPRS_Task+0x25c>)
 8002cd6:	f7fd fd3f 	bl	8000758 <HAL_GPIO_WritePin>
		break;
 8002cda:	e788      	b.n	8002bee <GPRS_Task+0x7a>
		GPRS_Command(GSM, &State, &Timeout, SIM_TIMEOUT_SHORT,
 8002cdc:	4b4b      	ldr	r3, [pc, #300]	; (8002e0c <GPRS_Task+0x298>)
 8002cde:	9501      	str	r5, [sp, #4]
 8002ce0:	9302      	str	r3, [sp, #8]
 8002ce2:	4b4b      	ldr	r3, [pc, #300]	; (8002e10 <GPRS_Task+0x29c>)
 8002ce4:	e7a7      	b.n	8002c36 <GPRS_Task+0xc2>
		if (State == JS_Init)
 8002ce6:	7c62      	ldrb	r2, [r4, #17]
 8002ce8:	4f4a      	ldr	r7, [pc, #296]	; (8002e14 <GPRS_Task+0x2a0>)
 8002cea:	b952      	cbnz	r2, 8002d02 <GPRS_Task+0x18e>
			if (TxMessage == NULL)
 8002cec:	b90b      	cbnz	r3, 8002cf2 <GPRS_Task+0x17e>
				FATAL_ERROR("GPRS_Task/TJ_SendSMSMessage/JS_Init");
 8002cee:	f7ff fd2f 	bl	8002750 <FATAL_ERROR.constprop.0>
			strcpy(TxMessageBuffer, TxMessage);
 8002cf2:	4619      	mov	r1, r3
 8002cf4:	4638      	mov	r0, r7
 8002cf6:	f000 fe93 	bl	8003a20 <strcpy>
			strcat(TxMessageBuffer, "\x1a");
 8002cfa:	4947      	ldr	r1, [pc, #284]	; (8002e18 <GPRS_Task+0x2a4>)
 8002cfc:	4638      	mov	r0, r7
 8002cfe:	f000 fe72 	bl	80039e6 <strcat>
		GPRS_Command(GSM, &State, &Timeout, SIM_TIMEOUT_LONG, TxMessageBuffer,
 8002d02:	4b36      	ldr	r3, [pc, #216]	; (8002ddc <GPRS_Task+0x268>)
 8002d04:	9501      	str	r5, [sp, #4]
 8002d06:	9302      	str	r3, [sp, #8]
 8002d08:	9700      	str	r7, [sp, #0]
 8002d0a:	e78e      	b.n	8002c2a <GPRS_Task+0xb6>
		*Flags = (*Flags) & ~ GPRS_FLAG_SEND_SMS;
 8002d0c:	783b      	ldrb	r3, [r7, #0]
 8002d0e:	f023 0302 	bic.w	r3, r3, #2
 8002d12:	703b      	strb	r3, [r7, #0]
			Job = TJ_NextTask;
 8002d14:	2305      	movs	r3, #5
 8002d16:	e79f      	b.n	8002c58 <GPRS_Task+0xe4>
		if (State == JS_Init)
 8002d18:	7c63      	ldrb	r3, [r4, #17]
 8002d1a:	b91b      	cbnz	r3, 8002d24 <GPRS_Task+0x1b0>
			SmsFound = 0;
 8002d1c:	f8a4 30de 	strh.w	r3, [r4, #222]	; 0xde
			SMSToFind = 0;
 8002d20:	f8a4 30e0 	strh.w	r3, [r4, #224]	; 0xe0
		GPRS_Command(GSM, &State, &Timeout, SIM_TIMEOUT_LONG,
 8002d24:	4b2b      	ldr	r3, [pc, #172]	; (8002dd4 <GPRS_Task+0x260>)
 8002d26:	9501      	str	r5, [sp, #4]
 8002d28:	9302      	str	r3, [sp, #8]
 8002d2a:	4b3c      	ldr	r3, [pc, #240]	; (8002e1c <GPRS_Task+0x2a8>)
 8002d2c:	e77c      	b.n	8002c28 <GPRS_Task+0xb4>
		SMSToFind = GetPendingSMS(RxMessage);
 8002d2e:	4628      	mov	r0, r5
 8002d30:	f7ff fece 	bl	8002ad0 <GetPendingSMS>
 8002d34:	f8a4 00e0 	strh.w	r0, [r4, #224]	; 0xe0
		SMSMaxCount = GetMaxSMSCount(RxMessage);
 8002d38:	4628      	mov	r0, r5
 8002d3a:	f7ff fef3 	bl	8002b24 <GetMaxSMSCount>
		Job = TJ_ReadSMS;
 8002d3e:	2314      	movs	r3, #20
 8002d40:	7423      	strb	r3, [r4, #16]
		if (SMSToFind == 0)
 8002d42:	f8b4 30e0 	ldrh.w	r3, [r4, #224]	; 0xe0
		SMSMaxCount = GetMaxSMSCount(RxMessage);
 8002d46:	f8a4 00e2 	strh.w	r0, [r4, #226]	; 0xe2
		if (SMSToFind == 0)
 8002d4a:	2b00      	cmp	r3, #0
 8002d4c:	f47f af4f 	bne.w	8002bee <GPRS_Task+0x7a>
			SmsNo = 1; //1
 8002d50:	2301      	movs	r3, #1
 8002d52:	83a3      	strh	r3, [r4, #28]
			*Flags = (*Flags) & ~ GPRS_FLAG_READ_SMS;
 8002d54:	783b      	ldrb	r3, [r7, #0]
 8002d56:	f023 0304 	bic.w	r3, r3, #4
 8002d5a:	703b      	strb	r3, [r7, #0]
			Job = TJ_EndReadSMS;
 8002d5c:	2317      	movs	r3, #23
 8002d5e:	e77b      	b.n	8002c58 <GPRS_Task+0xe4>
		if (State == JS_Init)
 8002d60:	7c63      	ldrb	r3, [r4, #17]
 8002d62:	4f2c      	ldr	r7, [pc, #176]	; (8002e14 <GPRS_Task+0x2a0>)
 8002d64:	b9f3      	cbnz	r3, 8002da4 <GPRS_Task+0x230>
			uint8_t Offset = 0;
 8002d66:	f10d 0818 	add.w	r8, sp, #24
			strcpy(TxMessageBuffer, "AT+CMGR=");
 8002d6a:	492d      	ldr	r1, [pc, #180]	; (8002e20 <GPRS_Task+0x2ac>)
 8002d6c:	4638      	mov	r0, r7
			uint8_t Offset = 0;
 8002d6e:	f808 3d05 	strb.w	r3, [r8, #-5]!
			strcpy(TxMessageBuffer, "AT+CMGR=");
 8002d72:	f000 fe55 	bl	8003a20 <strcpy>
			itoa((uint32_t) SmsNo, &SmsNoStr, &Offset);
 8002d76:	8ba0      	ldrh	r0, [r4, #28]
 8002d78:	4642      	mov	r2, r8
 8002d7a:	a905      	add	r1, sp, #20
 8002d7c:	b280      	uxth	r0, r0
 8002d7e:	f7ff fe8b 	bl	8002a98 <itoa>
			strcpy(TxMessageBuffer + 8, SmsNoStr);
 8002d82:	9905      	ldr	r1, [sp, #20]
 8002d84:	f107 0008 	add.w	r0, r7, #8
 8002d88:	f000 fe4a 	bl	8003a20 <strcpy>
			strcpy(TxMessageBuffer + 8 + Offset, "\r\n");
 8002d8c:	f89d 0013 	ldrb.w	r0, [sp, #19]
 8002d90:	4924      	ldr	r1, [pc, #144]	; (8002e24 <GPRS_Task+0x2b0>)
 8002d92:	3008      	adds	r0, #8
 8002d94:	4438      	add	r0, r7
 8002d96:	f000 fe43 	bl	8003a20 <strcpy>
			DBG_PRINT_TN("CZYTAM SLOT SMS NUMER: ",SmsNo);
 8002d9a:	8ba1      	ldrh	r1, [r4, #28]
 8002d9c:	4822      	ldr	r0, [pc, #136]	; (8002e28 <GPRS_Task+0x2b4>)
 8002d9e:	b289      	uxth	r1, r1
 8002da0:	f7ff fcfc 	bl	800279c <DBG_PRINT_TN>
		GPRS_Command(GSM, &State, &Timeout, SIM_TIMEOUT_SHORT, TxMessageBuffer,
 8002da4:	4b0b      	ldr	r3, [pc, #44]	; (8002dd4 <GPRS_Task+0x260>)
 8002da6:	9501      	str	r5, [sp, #4]
 8002da8:	9302      	str	r3, [sp, #8]
 8002daa:	9700      	str	r7, [sp, #0]
 8002dac:	e744      	b.n	8002c38 <GPRS_Task+0xc4>
		Job++;
 8002dae:	2316      	movs	r3, #22
 8002db0:	e752      	b.n	8002c58 <GPRS_Task+0xe4>
		if (State == JS_Init)
 8002db2:	7c62      	ldrb	r2, [r4, #17]
 8002db4:	4b17      	ldr	r3, [pc, #92]	; (8002e14 <GPRS_Task+0x2a0>)
 8002db6:	b922      	cbnz	r2, 8002dc2 <GPRS_Task+0x24e>
			strcpy(TxMessageBuffer, "AT+CMGDA=\"DEL READ\"\r\n");
 8002db8:	4618      	mov	r0, r3
 8002dba:	491c      	ldr	r1, [pc, #112]	; (8002e2c <GPRS_Task+0x2b8>)
 8002dbc:	f000 fe30 	bl	8003a20 <strcpy>
 8002dc0:	4603      	mov	r3, r0
		GPRS_Command(GSM, &State, &Timeout, SIM_TIMEOUT_SHORT, TxMessageBuffer,
 8002dc2:	4a06      	ldr	r2, [pc, #24]	; (8002ddc <GPRS_Task+0x268>)
 8002dc4:	9501      	str	r5, [sp, #4]
 8002dc6:	9202      	str	r2, [sp, #8]
 8002dc8:	e735      	b.n	8002c36 <GPRS_Task+0xc2>
 8002dca:	bf00      	nop
 8002dcc:	20000040 	.word	0x20000040
 8002dd0:	40011400 	.word	0x40011400
 8002dd4:	08003b0d 	.word	0x08003b0d
 8002dd8:	08003b5d 	.word	0x08003b5d
 8002ddc:	08003b63 	.word	0x08003b63
 8002de0:	08003b6a 	.word	0x08003b6a
 8002de4:	20000054 	.word	0x20000054
 8002de8:	08003b71 	.word	0x08003b71
 8002dec:	08003b7d 	.word	0x08003b7d
 8002df0:	08003b8a 	.word	0x08003b8a
 8002df4:	08003baa 	.word	0x08003baa
 8002df8:	08003bca 	.word	0x08003bca
 8002dfc:	08003beb 	.word	0x08003beb
 8002e00:	08003c0b 	.word	0x08003c0b
 8002e04:	08003c1a 	.word	0x08003c1a
 8002e08:	08003c29 	.word	0x08003c29
 8002e0c:	08003c3c 	.word	0x08003c3c
 8002e10:	08003c41 	.word	0x08003c41
 8002e14:	2000005e 	.word	0x2000005e
 8002e18:	08003c5a 	.word	0x08003c5a
 8002e1c:	08003c5c 	.word	0x08003c5c
 8002e20:	08003c75 	.word	0x08003c75
 8002e24:	08003b0b 	.word	0x08003b0b
 8002e28:	08003c7e 	.word	0x08003c7e
 8002e2c:	08003c96 	.word	0x08003c96
		if ((SMSToFind != SmsFound) && (SmsNo <= SMSMaxCount))
 8002e30:	f8b4 20e0 	ldrh.w	r2, [r4, #224]	; 0xe0
 8002e34:	f8b4 30de 	ldrh.w	r3, [r4, #222]	; 0xde
 8002e38:	429a      	cmp	r2, r3
 8002e3a:	d007      	beq.n	8002e4c <GPRS_Task+0x2d8>
 8002e3c:	8ba3      	ldrh	r3, [r4, #28]
 8002e3e:	f8b4 20e2 	ldrh.w	r2, [r4, #226]	; 0xe2
 8002e42:	b29b      	uxth	r3, r3
 8002e44:	429a      	cmp	r2, r3
 8002e46:	d301      	bcc.n	8002e4c <GPRS_Task+0x2d8>
			Job = TJ_ReadSMS;
 8002e48:	2314      	movs	r3, #20
 8002e4a:	e705      	b.n	8002c58 <GPRS_Task+0xe4>
			SmsNo = 1;
 8002e4c:	2301      	movs	r3, #1
 8002e4e:	83a3      	strh	r3, [r4, #28]
			*Flags = (*Flags) & ~ GPRS_FLAG_READ_SMS;
 8002e50:	783b      	ldrb	r3, [r7, #0]
			DBG_PRINT("WSZYSTKIE SMS ODCZYTANE");
 8002e52:	481e      	ldr	r0, [pc, #120]	; (8002ecc <GPRS_Task+0x358>)
			*Flags = (*Flags) & ~ GPRS_FLAG_READ_SMS;
 8002e54:	f023 0304 	bic.w	r3, r3, #4
 8002e58:	703b      	strb	r3, [r7, #0]
			DBG_PRINT("WSZYSTKIE SMS ODCZYTANE");
 8002e5a:	f7ff fc7b 	bl	8002754 <DBG_PRINT>
 8002e5e:	e759      	b.n	8002d14 <GPRS_Task+0x1a0>
		switch (State)
 8002e60:	7c62      	ldrb	r2, [r4, #17]
 8002e62:	b132      	cbz	r2, 8002e72 <GPRS_Task+0x2fe>
 8002e64:	2a03      	cmp	r2, #3
 8002e66:	f47f aec2 	bne.w	8002bee <GPRS_Task+0x7a>
			State = JS_Init;
 8002e6a:	2300      	movs	r3, #0
 8002e6c:	7463      	strb	r3, [r4, #17]
			Job = TJ_PowerOnInit;
 8002e6e:	2301      	movs	r3, #1
 8002e70:	e6f2      	b.n	8002c58 <GPRS_Task+0xe4>
			HAL_GPIO_WritePin(QB_GSM_PWR_ON_GPIO_Port, QB_GSM_PWR_ON_Pin,
 8002e72:	2102      	movs	r1, #2
 8002e74:	4816      	ldr	r0, [pc, #88]	; (8002ed0 <GPRS_Task+0x35c>)
 8002e76:	f7fd fc6f 	bl	8000758 <HAL_GPIO_WritePin>
			Timeout = 40;
 8002e7a:	2328      	movs	r3, #40	; 0x28
 8002e7c:	6163      	str	r3, [r4, #20]
 8002e7e:	e6ca      	b.n	8002c16 <GPRS_Task+0xa2>
		State = JS_Init;
 8002e80:	2300      	movs	r3, #0
 8002e82:	7463      	strb	r3, [r4, #17]
		Retries = SIM_COMMAND_RETRIES;
 8002e84:	2303      	movs	r3, #3
 8002e86:	61a3      	str	r3, [r4, #24]
		Job++;
 8002e88:	7c23      	ldrb	r3, [r4, #16]
 8002e8a:	3301      	adds	r3, #1
 8002e8c:	7423      	strb	r3, [r4, #16]
		break;
 8002e8e:	e684      	b.n	8002b9a <GPRS_Task+0x26>
		if (Retries)
 8002e90:	69a3      	ldr	r3, [r4, #24]
 8002e92:	b11b      	cbz	r3, 8002e9c <GPRS_Task+0x328>
			Retries--;
 8002e94:	3b01      	subs	r3, #1
 8002e96:	61a3      	str	r3, [r4, #24]
		State = JS_Init;
 8002e98:	2300      	movs	r3, #0
 8002e9a:	e012      	b.n	8002ec2 <GPRS_Task+0x34e>
			GlobalRetries++;
 8002e9c:	68e3      	ldr	r3, [r4, #12]
 8002e9e:	3301      	adds	r3, #1
			if (GlobalRetries >= SIM_GLOBAL_RETRIES)
 8002ea0:	2b02      	cmp	r3, #2
			GlobalRetries++;
 8002ea2:	60e3      	str	r3, [r4, #12]
				Job = TJ_FatalError;
 8002ea4:	bfcc      	ite	gt
 8002ea6:	231a      	movgt	r3, #26
				Job = TJ_PowerOff;
 8002ea8:	2319      	movle	r3, #25
 8002eaa:	7423      	strb	r3, [r4, #16]
			State = JS_Init;
 8002eac:	2300      	movs	r3, #0
 8002eae:	7463      	strb	r3, [r4, #17]
			Retries = SIM_COMMAND_RETRIES;
 8002eb0:	2303      	movs	r3, #3
 8002eb2:	61a3      	str	r3, [r4, #24]
 8002eb4:	e671      	b.n	8002b9a <GPRS_Task+0x26>
		if (Timeout)
 8002eb6:	6963      	ldr	r3, [r4, #20]
 8002eb8:	b113      	cbz	r3, 8002ec0 <GPRS_Task+0x34c>
			Timeout--;
 8002eba:	3b01      	subs	r3, #1
 8002ebc:	6163      	str	r3, [r4, #20]
 8002ebe:	e66c      	b.n	8002b9a <GPRS_Task+0x26>
			State = JS_CheckResponse;
 8002ec0:	2303      	movs	r3, #3
		State = JS_Init;
 8002ec2:	7463      	strb	r3, [r4, #17]
 8002ec4:	e669      	b.n	8002b9a <GPRS_Task+0x26>
		Job = TJ_PowerOff;
 8002ec6:	2319      	movs	r3, #25
 8002ec8:	7423      	strb	r3, [r4, #16]
 8002eca:	e7e5      	b.n	8002e98 <GPRS_Task+0x324>
 8002ecc:	08003cac 	.word	0x08003cac
 8002ed0:	40011400 	.word	0x40011400

08002ed4 <ParseSMS>:
{
 8002ed4:	b538      	push	{r3, r4, r5, lr}
	if ((strncmp(SMS, "\r\nOK\r\n", 6)) == 0)
 8002ed6:	2206      	movs	r2, #6
 8002ed8:	4938      	ldr	r1, [pc, #224]	; (8002fbc <ParseSMS+0xe8>)
{
 8002eda:	4604      	mov	r4, r0
	if ((strncmp(SMS, "\r\nOK\r\n", 6)) == 0)
 8002edc:	f000 fda8 	bl	8003a30 <strncmp>
 8002ee0:	2800      	cmp	r0, #0
 8002ee2:	d068      	beq.n	8002fb6 <ParseSMS+0xe2>
	if ((SMS = strstr(SMS, "\r\nACTION ")) != NULL)
 8002ee4:	4936      	ldr	r1, [pc, #216]	; (8002fc0 <ParseSMS+0xec>)
 8002ee6:	4620      	mov	r0, r4
 8002ee8:	f000 fdc9 	bl	8003a7e <strstr>
 8002eec:	2800      	cmp	r0, #0
 8002eee:	d063      	beq.n	8002fb8 <ParseSMS+0xe4>
		SMS += 9;
 8002ef0:	f100 0409 	add.w	r4, r0, #9
		if (strncmp("STOP", SMS, 4) == 0)
 8002ef4:	2204      	movs	r2, #4
 8002ef6:	4621      	mov	r1, r4
 8002ef8:	4832      	ldr	r0, [pc, #200]	; (8002fc4 <ParseSMS+0xf0>)
 8002efa:	f000 fd99 	bl	8003a30 <strncmp>
 8002efe:	b9d0      	cbnz	r0, 8002f36 <ParseSMS+0x62>
			DBG_PRINT("STOP command. Goodbye cruel world!");
 8002f00:	4831      	ldr	r0, [pc, #196]	; (8002fc8 <ParseSMS+0xf4>)
 8002f02:	f7ff fc27 	bl	8002754 <DBG_PRINT>
			HAL_GPIO_WritePin(QB_GPS_PWR_ON_GPIO_Port, QB_GPS_PWR_ON_Pin,
 8002f06:	2201      	movs	r2, #1
 8002f08:	2110      	movs	r1, #16
 8002f0a:	4830      	ldr	r0, [pc, #192]	; (8002fcc <ParseSMS+0xf8>)
 8002f0c:	f7fd fc24 	bl	8000758 <HAL_GPIO_WritePin>
			HAL_GPIO_WritePin(QB_DEBUG_LED_GREEN_GPIO_Port,
 8002f10:	2201      	movs	r2, #1
 8002f12:	2180      	movs	r1, #128	; 0x80
 8002f14:	482d      	ldr	r0, [pc, #180]	; (8002fcc <ParseSMS+0xf8>)
 8002f16:	f7fd fc1f 	bl	8000758 <HAL_GPIO_WritePin>
				HAL_UART_Transmit(uart3_buffer_gsm.huart, (void*) "AT+CMGDA=\"DEL READ\"\r\n", 25, 100);
 8002f1a:	4c2d      	ldr	r4, [pc, #180]	; (8002fd0 <ParseSMS+0xfc>)
 8002f1c:	4d2d      	ldr	r5, [pc, #180]	; (8002fd4 <ParseSMS+0x100>)
 8002f1e:	2364      	movs	r3, #100	; 0x64
 8002f20:	2219      	movs	r2, #25
 8002f22:	4629      	mov	r1, r5
 8002f24:	f8d4 0220 	ldr.w	r0, [r4, #544]	; 0x220
 8002f28:	f7fe fd6c 	bl	8001a04 <HAL_UART_Transmit>
				HAL_Delay(5000);
 8002f2c:	f241 3088 	movw	r0, #5000	; 0x1388
 8002f30:	f7fd f95a 	bl	80001e8 <HAL_Delay>
 8002f34:	e7f3      	b.n	8002f1e <ParseSMS+0x4a>
		else if (strncmp("LORA", SMS, 4) == 0)
 8002f36:	2204      	movs	r2, #4
 8002f38:	4621      	mov	r1, r4
 8002f3a:	4827      	ldr	r0, [pc, #156]	; (8002fd8 <ParseSMS+0x104>)
 8002f3c:	f000 fd78 	bl	8003a30 <strncmp>
 8002f40:	b9a8      	cbnz	r0, 8002f6e <ParseSMS+0x9a>
			DBG_PRINT("LORA command. PANIC!");
 8002f42:	4826      	ldr	r0, [pc, #152]	; (8002fdc <ParseSMS+0x108>)
 8002f44:	f7ff fc06 	bl	8002754 <DBG_PRINT>
			HAL_UART_Transmit(uart3_buffer_gsm.huart, (void*) "AT+CMGDA=\"DEL READ\"\r\n", 25, 100);
 8002f48:	4821      	ldr	r0, [pc, #132]	; (8002fd0 <ParseSMS+0xfc>)
 8002f4a:	2364      	movs	r3, #100	; 0x64
 8002f4c:	2219      	movs	r2, #25
 8002f4e:	4921      	ldr	r1, [pc, #132]	; (8002fd4 <ParseSMS+0x100>)
 8002f50:	f8d0 0220 	ldr.w	r0, [r0, #544]	; 0x220
 8002f54:	f7fe fd56 	bl	8001a04 <HAL_UART_Transmit>
			HAL_Delay(5000);
 8002f58:	f241 3088 	movw	r0, #5000	; 0x1388
 8002f5c:	f7fd f944 	bl	80001e8 <HAL_Delay>
			HAL_GPIO_WritePin(QB_GPS_PWR_ON_GPIO_Port, QB_GPS_PWR_ON_Pin,
 8002f60:	2201      	movs	r2, #1
 8002f62:	2110      	movs	r1, #16
 8002f64:	4819      	ldr	r0, [pc, #100]	; (8002fcc <ParseSMS+0xf8>)
 8002f66:	f7fd fbf7 	bl	8000758 <HAL_GPIO_WritePin>
			LoRa_Panic();
 8002f6a:	f7ff fc5b 	bl	8002824 <LoRa_Panic>
			CMD_Start = strstr(SMS, "START ");
 8002f6e:	491c      	ldr	r1, [pc, #112]	; (8002fe0 <ParseSMS+0x10c>)
 8002f70:	4620      	mov	r0, r4
 8002f72:	f000 fd84 	bl	8003a7e <strstr>
			if (CMD_Start != NULL)
 8002f76:	b1f8      	cbz	r0, 8002fb8 <ParseSMS+0xe4>
{
 8002f78:	2400      	movs	r4, #0
					Time = Time * 10 + *CMD_Start - '0';
 8002f7a:	220a      	movs	r2, #10
				if (*CMD_Start == 'S')
 8002f7c:	7803      	ldrb	r3, [r0, #0]
 8002f7e:	2b53      	cmp	r3, #83	; 0x53
					CMD_Start += 6;
 8002f80:	bf08      	it	eq
 8002f82:	3006      	addeq	r0, #6
					if (*CMD_Start < '0' || *CMD_Start > '9')
 8002f84:	7803      	ldrb	r3, [r0, #0]
 8002f86:	f1a3 0130 	sub.w	r1, r3, #48	; 0x30
 8002f8a:	2909      	cmp	r1, #9
 8002f8c:	d812      	bhi.n	8002fb4 <ParseSMS+0xe0>
					Time = Time * 10 + *CMD_Start - '0';
 8002f8e:	fb02 3404 	mla	r4, r2, r4, r3
					if (*CMD_Start == 'H')	//	'\0'
 8002f92:	f810 3f01 	ldrb.w	r3, [r0, #1]!
					Time = Time * 10 + *CMD_Start - '0';
 8002f96:	3c30      	subs	r4, #48	; 0x30
					if (*CMD_Start == 'H')	//	'\0'
 8002f98:	2b48      	cmp	r3, #72	; 0x48
 8002f9a:	d109      	bne.n	8002fb0 <ParseSMS+0xdc>
						DBG_PRINT_TN("NOWY CZAS BUDZENIA CO :",Time);
 8002f9c:	b2a1      	uxth	r1, r4
 8002f9e:	4811      	ldr	r0, [pc, #68]	; (8002fe4 <ParseSMS+0x110>)
 8002fa0:	f7ff fbfc 	bl	800279c <DBG_PRINT_TN>
	Backup.Split.RTC_Interval = Hours;
 8002fa4:	4b10      	ldr	r3, [pc, #64]	; (8002fe8 <ParseSMS+0x114>)
 8002fa6:	b224      	sxth	r4, r4
 8002fa8:	801c      	strh	r4, [r3, #0]
	Backup.Split.RTC_TimeLeft = Hours;
 8002faa:	805c      	strh	r4, [r3, #2]
				return SMS_Command;
 8002fac:	2002      	movs	r0, #2
 8002fae:	bd38      	pop	{r3, r4, r5, pc}
					if (*CMD_Start == '\0')	//	'\0'
 8002fb0:	2b00      	cmp	r3, #0
 8002fb2:	d1e7      	bne.n	8002f84 <ParseSMS+0xb0>
						return SMS_Error;
 8002fb4:	2003      	movs	r0, #3
}
 8002fb6:	bd38      	pop	{r3, r4, r5, pc}
	return SMS_Junk;
 8002fb8:	2001      	movs	r0, #1
 8002fba:	bd38      	pop	{r3, r4, r5, pc}
 8002fbc:	08003b63 	.word	0x08003b63
 8002fc0:	08003cc4 	.word	0x08003cc4
 8002fc4:	08003cce 	.word	0x08003cce
 8002fc8:	08003cd3 	.word	0x08003cd3
 8002fcc:	40010800 	.word	0x40010800
 8002fd0:	200005c0 	.word	0x200005c0
 8002fd4:	08003c96 	.word	0x08003c96
 8002fd8:	08003cf6 	.word	0x08003cf6
 8002fdc:	08003cfb 	.word	0x08003cfb
 8002fe0:	08003d10 	.word	0x08003d10
 8002fe4:	08003d17 	.word	0x08003d17
 8002fe8:	200004fc 	.word	0x200004fc

08002fec <GPS_GSM_TrackerTask>:
{
 8002fec:	b5f0      	push	{r4, r5, r6, r7, lr}
	if (!ringBuffer_checkBounds(&uart3_buffer_gsm))
 8002fee:	4893      	ldr	r0, [pc, #588]	; (800323c <GPS_GSM_TrackerTask+0x250>)
{
 8002ff0:	b08b      	sub	sp, #44	; 0x2c
	if (!ringBuffer_checkBounds(&uart3_buffer_gsm))
 8002ff2:	f7ff faaf 	bl	8002554 <ringBuffer_checkBounds>
 8002ff6:	b908      	cbnz	r0, 8002ffc <GPS_GSM_TrackerTask+0x10>
		FATAL_ERROR("BUFFER OVERFLOW");
 8002ff8:	f7ff fbaa 	bl	8002750 <FATAL_ERROR.constprop.0>
	if (!GPRS_Run)
 8002ffc:	4c90      	ldr	r4, [pc, #576]	; (8003240 <GPS_GSM_TrackerTask+0x254>)
 8002ffe:	f894 20e4 	ldrb.w	r2, [r4, #228]	; 0xe4
 8003002:	f002 03ff 	and.w	r3, r2, #255	; 0xff
 8003006:	b942      	cbnz	r2, 800301a <GPS_GSM_TrackerTask+0x2e>
		HAL_GPIO_WritePin(QB_GPS_PWR_ON_GPIO_Port, QB_GPS_PWR_ON_Pin,
 8003008:	2201      	movs	r2, #1
 800300a:	2110      	movs	r1, #16
 800300c:	488d      	ldr	r0, [pc, #564]	; (8003244 <GPS_GSM_TrackerTask+0x258>)
		GPRS_Ticks = 0;
 800300e:	f8c4 30e8 	str.w	r3, [r4, #232]	; 0xe8
		GPRS_Mode = 0;
 8003012:	f8c4 30ec 	str.w	r3, [r4, #236]	; 0xec
		HAL_GPIO_WritePin(QB_GPS_PWR_ON_GPIO_Port, QB_GPS_PWR_ON_Pin,
 8003016:	f7fd fb9f 	bl	8000758 <HAL_GPIO_WritePin>
	GPRS_Run = true;
 800301a:	2301      	movs	r3, #1
	if (SOFT_TIMER_EXECUTE(soft_timer, ST_MAIN_LOOP, 100))
 800301c:	4a8a      	ldr	r2, [pc, #552]	; (8003248 <GPS_GSM_TrackerTask+0x25c>)
	GPRS_Run = true;
 800301e:	f884 30e4 	strb.w	r3, [r4, #228]	; 0xe4
	if (SOFT_TIMER_EXECUTE(soft_timer, ST_MAIN_LOOP, 100))
 8003022:	8813      	ldrh	r3, [r2, #0]
 8003024:	b29b      	uxth	r3, r3
 8003026:	2b00      	cmp	r3, #0
 8003028:	d174      	bne.n	8003114 <GPS_GSM_TrackerTask+0x128>
 800302a:	2364      	movs	r3, #100	; 0x64
		HAL_GPIO_TogglePin(QB_DEBUG_LED_GREEN_GPIO_Port,
 800302c:	2180      	movs	r1, #128	; 0x80
 800302e:	4885      	ldr	r0, [pc, #532]	; (8003244 <GPS_GSM_TrackerTask+0x258>)
	if (SOFT_TIMER_EXECUTE(soft_timer, ST_MAIN_LOOP, 100))
 8003030:	8013      	strh	r3, [r2, #0]
		HAL_GPIO_TogglePin(QB_DEBUG_LED_GREEN_GPIO_Port,
 8003032:	f7fd fb96 	bl	8000762 <HAL_GPIO_TogglePin>
		if (GPRS_Run)
 8003036:	f894 30e4 	ldrb.w	r3, [r4, #228]	; 0xe4
 800303a:	2b00      	cmp	r3, #0
 800303c:	d06a      	beq.n	8003114 <GPS_GSM_TrackerTask+0x128>
			GPRS_Ticks++;
 800303e:	f8d4 30e8 	ldr.w	r3, [r4, #232]	; 0xe8
			switch (GPRS_Mode)
 8003042:	f8d4 20ec 	ldr.w	r2, [r4, #236]	; 0xec
			GPRS_Ticks++;
 8003046:	3301      	adds	r3, #1
 8003048:	f8c4 30e8 	str.w	r3, [r4, #232]	; 0xe8
			switch (GPRS_Mode)
 800304c:	2a05      	cmp	r2, #5
 800304e:	f200 80f3 	bhi.w	8003238 <GPS_GSM_TrackerTask+0x24c>
 8003052:	e8df f002 	tbb	[pc, r2]
 8003056:	2003      	.short	0x2003
 8003058:	c48a7942 	.word	0xc48a7942
				if (GPRS_Task(GPRS_Run, &uart3_buffer_gsm, GPRS_RxMessage, 0,
 800305c:	4a7b      	ldr	r2, [pc, #492]	; (800324c <GPS_GSM_TrackerTask+0x260>)
 800305e:	2300      	movs	r3, #0
 8003060:	9200      	str	r2, [sp, #0]
 8003062:	f894 00e4 	ldrb.w	r0, [r4, #228]	; 0xe4
 8003066:	f5a2 7280 	sub.w	r2, r2, #256	; 0x100
 800306a:	4974      	ldr	r1, [pc, #464]	; (800323c <GPS_GSM_TrackerTask+0x250>)
 800306c:	f7ff fd82 	bl	8002b74 <GPRS_Task>
 8003070:	281a      	cmp	r0, #26
					GPRS_Run = false;
 8003072:	bf04      	itt	eq
 8003074:	2300      	moveq	r3, #0
 8003076:	f884 30e4 	strbeq.w	r3, [r4, #228]	; 0xe4
				if (GPRS_Ticks >= SIM_STARTUP_WAIT_TIME)
 800307a:	f8d4 30e8 	ldr.w	r3, [r4, #232]	; 0xe8
 800307e:	f5b3 7f16 	cmp.w	r3, #600	; 0x258
 8003082:	db47      	blt.n	8003114 <GPS_GSM_TrackerTask+0x128>
					GPRS_Mode++;
 8003084:	f8d4 30ec 	ldr.w	r3, [r4, #236]	; 0xec
 8003088:	3301      	adds	r3, #1
 800308a:	f8c4 30ec 	str.w	r3, [r4, #236]	; 0xec
					GPRS_To_Do = GPRS_FLAG_GET_LOCATION;
 800308e:	2301      	movs	r3, #1
					GPRS_To_Do = GPRS_FLAG_READ_SMS;
 8003090:	f884 31f0 	strb.w	r3, [r4, #496]	; 0x1f0
 8003094:	e03e      	b.n	8003114 <GPS_GSM_TrackerTask+0x128>
				switch (GPRS_Task(GPRS_Run, &uart3_buffer_gsm, GPRS_RxMessage,
 8003096:	4d6d      	ldr	r5, [pc, #436]	; (800324c <GPS_GSM_TrackerTask+0x260>)
 8003098:	f894 00e4 	ldrb.w	r0, [r4, #228]	; 0xe4
 800309c:	9500      	str	r5, [sp, #0]
 800309e:	2300      	movs	r3, #0
 80030a0:	f5a5 7280 	sub.w	r2, r5, #256	; 0x100
 80030a4:	4965      	ldr	r1, [pc, #404]	; (800323c <GPS_GSM_TrackerTask+0x250>)
 80030a6:	f7ff fd65 	bl	8002b74 <GPRS_Task>
 80030aa:	2818      	cmp	r0, #24
 80030ac:	d003      	beq.n	80030b6 <GPS_GSM_TrackerTask+0xca>
				switch (GPRS_Task(GPRS_Run, &uart3_buffer_gsm, GPRS_RxMessage,
 80030ae:	281a      	cmp	r0, #26
 80030b0:	d130      	bne.n	8003114 <GPS_GSM_TrackerTask+0x128>
					GPRS_Run = false;
 80030b2:	2300      	movs	r3, #0
 80030b4:	e090      	b.n	80031d8 <GPS_GSM_TrackerTask+0x1ec>
					DBG_PRINT("USTALAM POZYCJE AGPS");
 80030b6:	4866      	ldr	r0, [pc, #408]	; (8003250 <GPS_GSM_TrackerTask+0x264>)
 80030b8:	f7ff fb4c 	bl	8002754 <DBG_PRINT>
					strncpy(GPRS_Location, GPRS_RxMessage,
 80030bc:	227f      	movs	r2, #127	; 0x7f
 80030be:	f5a5 7180 	sub.w	r1, r5, #256	; 0x100
 80030c2:	1c68      	adds	r0, r5, #1
 80030c4:	f000 fcc6 	bl	8003a54 <strncpy>
						GPRS_To_Do = GPRS_FLAG_SEND_SMS;
 80030c8:	2302      	movs	r3, #2
 80030ca:	f884 31f0 	strb.w	r3, [r4, #496]	; 0x1f0
						GPRS_Mode++;
 80030ce:	f8d4 30ec 	ldr.w	r3, [r4, #236]	; 0xec
 80030d2:	3301      	adds	r3, #1
				GPRS_Mode = 0;
 80030d4:	f8c4 30ec 	str.w	r3, [r4, #236]	; 0xec
 80030d8:	e01c      	b.n	8003114 <GPS_GSM_TrackerTask+0x128>
				switch (GPRS_Task(GPRS_Run, &uart3_buffer_gsm, GPRS_RxMessage,
 80030da:	4a5c      	ldr	r2, [pc, #368]	; (800324c <GPS_GSM_TrackerTask+0x260>)
 80030dc:	f894 00e4 	ldrb.w	r0, [r4, #228]	; 0xe4
 80030e0:	9200      	str	r2, [sp, #0]
 80030e2:	1c53      	adds	r3, r2, #1
 80030e4:	4955      	ldr	r1, [pc, #340]	; (800323c <GPS_GSM_TrackerTask+0x250>)
 80030e6:	f5a2 7280 	sub.w	r2, r2, #256	; 0x100
 80030ea:	f7ff fd43 	bl	8002b74 <GPRS_Task>
 80030ee:	2818      	cmp	r0, #24
 80030f0:	d005      	beq.n	80030fe <GPS_GSM_TrackerTask+0x112>
 80030f2:	281a      	cmp	r0, #26
 80030f4:	d10e      	bne.n	8003114 <GPS_GSM_TrackerTask+0x128>
					GPRS_Run = false;
 80030f6:	2300      	movs	r3, #0
 80030f8:	f884 30e4 	strb.w	r3, [r4, #228]	; 0xe4
 80030fc:	e7ea      	b.n	80030d4 <GPS_GSM_TrackerTask+0xe8>
					DBG_PRINT("WYSYLAM SMS Z LOKALIZACJA AGPS");
 80030fe:	4855      	ldr	r0, [pc, #340]	; (8003254 <GPS_GSM_TrackerTask+0x268>)
 8003100:	f7ff fb28 	bl	8002754 <DBG_PRINT>
					GPRS_Mode++;
 8003104:	f8d4 30ec 	ldr.w	r3, [r4, #236]	; 0xec
 8003108:	3301      	adds	r3, #1
 800310a:	f8c4 30ec 	str.w	r3, [r4, #236]	; 0xec
					GPRS_Ticks = 0; //reset czekamy na sms
 800310e:	2300      	movs	r3, #0
 8003110:	f8c4 30e8 	str.w	r3, [r4, #232]	; 0xe8
	if (!GPRS_Run) // nie else, gdyz ta flaga moze zmienic wartosc w trakcie wykonywania
 8003114:	f894 30e4 	ldrb.w	r3, [r4, #228]	; 0xe4
 8003118:	f003 05ff 	and.w	r5, r3, #255	; 0xff
 800311c:	b983      	cbnz	r3, 8003140 <GPS_GSM_TrackerTask+0x154>
		GPRS_Task(false, 0, 0, 0, 0); // wycz radio
 800311e:	462b      	mov	r3, r5
 8003120:	462a      	mov	r2, r5
 8003122:	4629      	mov	r1, r5
 8003124:	9500      	str	r5, [sp, #0]
 8003126:	4628      	mov	r0, r5
 8003128:	f7ff fd24 	bl	8002b74 <GPRS_Task>
		HAL_GPIO_WritePin(QB_GPS_PWR_ON_GPIO_Port, QB_GPS_PWR_ON_Pin, GPIO_PIN_RESET);
 800312c:	462a      	mov	r2, r5
 800312e:	2110      	movs	r1, #16
 8003130:	4844      	ldr	r0, [pc, #272]	; (8003244 <GPS_GSM_TrackerTask+0x258>)
 8003132:	f7fd fb11 	bl	8000758 <HAL_GPIO_WritePin>
		HAL_GPIO_WritePin(QB_DEBUG_LED_GREEN_GPIO_Port, QB_DEBUG_LED_GREEN_Pin, GPIO_PIN_RESET);
 8003136:	462a      	mov	r2, r5
 8003138:	2180      	movs	r1, #128	; 0x80
 800313a:	4842      	ldr	r0, [pc, #264]	; (8003244 <GPS_GSM_TrackerTask+0x258>)
 800313c:	f7fd fb0c 	bl	8000758 <HAL_GPIO_WritePin>
	return GPRS_Run;
 8003140:	f894 00e4 	ldrb.w	r0, [r4, #228]	; 0xe4
}
 8003144:	b00b      	add	sp, #44	; 0x2c
 8003146:	bdf0      	pop	{r4, r5, r6, r7, pc}
				if(GPRS_Ticks < 2)
 8003148:	2b01      	cmp	r3, #1
 800314a:	dc02      	bgt.n	8003152 <GPS_GSM_TrackerTask+0x166>
					DBG_PRINT("CZEKAM NA SMS.....");
 800314c:	4842      	ldr	r0, [pc, #264]	; (8003258 <GPS_GSM_TrackerTask+0x26c>)
 800314e:	f7ff fb01 	bl	8002754 <DBG_PRINT>
				if (GPRS_Ticks >= SIM_SMS_WAIT_TIME)
 8003152:	f8d4 30e8 	ldr.w	r3, [r4, #232]	; 0xe8
 8003156:	f5b3 7f16 	cmp.w	r3, #600	; 0x258
 800315a:	dbdb      	blt.n	8003114 <GPS_GSM_TrackerTask+0x128>
					GPRS_Mode++;
 800315c:	f8d4 30ec 	ldr.w	r3, [r4, #236]	; 0xec
 8003160:	3301      	adds	r3, #1
 8003162:	f8c4 30ec 	str.w	r3, [r4, #236]	; 0xec
					GPRS_To_Do = GPRS_FLAG_READ_SMS;
 8003166:	2304      	movs	r3, #4
 8003168:	e792      	b.n	8003090 <GPS_GSM_TrackerTask+0xa4>
				switch (GPRS_Task(GPRS_Run, &uart3_buffer_gsm, GPRS_RxMessage,
 800316a:	4d38      	ldr	r5, [pc, #224]	; (800324c <GPS_GSM_TrackerTask+0x260>)
 800316c:	f894 00e4 	ldrb.w	r0, [r4, #228]	; 0xe4
 8003170:	9500      	str	r5, [sp, #0]
 8003172:	2300      	movs	r3, #0
 8003174:	f5a5 7280 	sub.w	r2, r5, #256	; 0x100
 8003178:	4930      	ldr	r1, [pc, #192]	; (800323c <GPS_GSM_TrackerTask+0x250>)
 800317a:	f7ff fcfb 	bl	8002b74 <GPRS_Task>
 800317e:	2818      	cmp	r0, #24
 8003180:	d01f      	beq.n	80031c2 <GPS_GSM_TrackerTask+0x1d6>
 8003182:	281a      	cmp	r0, #26
 8003184:	d095      	beq.n	80030b2 <GPS_GSM_TrackerTask+0xc6>
 8003186:	2815      	cmp	r0, #21
 8003188:	d1c4      	bne.n	8003114 <GPS_GSM_TrackerTask+0x128>
					switch (ParseSMS(GPRS_RxMessage))
 800318a:	f5a5 7080 	sub.w	r0, r5, #256	; 0x100
 800318e:	f7ff fea1 	bl	8002ed4 <ParseSMS>
 8003192:	2803      	cmp	r0, #3
 8003194:	d810      	bhi.n	80031b8 <GPS_GSM_TrackerTask+0x1cc>
 8003196:	e8df f000 	tbb	[pc, r0]
 800319a:	050f      	.short	0x050f
 800319c:	0502      	.short	0x0502
						timeSet_flag = true;
 800319e:	2301      	movs	r3, #1
 80031a0:	f884 3271 	strb.w	r3, [r4, #625]	; 0x271
						SmsNo++;
 80031a4:	8ba3      	ldrh	r3, [r4, #28]
 80031a6:	3301      	adds	r3, #1
 80031a8:	b29b      	uxth	r3, r3
 80031aa:	83a3      	strh	r3, [r4, #28]
						SmsFound++;
 80031ac:	f8b4 30de 	ldrh.w	r3, [r4, #222]	; 0xde
 80031b0:	3301      	adds	r3, #1
 80031b2:	f8a4 30de 	strh.w	r3, [r4, #222]	; 0xde
						break;
 80031b6:	e7ad      	b.n	8003114 <GPS_GSM_TrackerTask+0x128>
						SmsNo++;
 80031b8:	8ba3      	ldrh	r3, [r4, #28]
 80031ba:	3301      	adds	r3, #1
 80031bc:	b29b      	uxth	r3, r3
 80031be:	83a3      	strh	r3, [r4, #28]
						break;
 80031c0:	e7a8      	b.n	8003114 <GPS_GSM_TrackerTask+0x128>
					if (timeSet_flag == true)
 80031c2:	f894 3271 	ldrb.w	r3, [r4, #625]	; 0x271
 80031c6:	2b01      	cmp	r3, #1
 80031c8:	f04f 0300 	mov.w	r3, #0
 80031cc:	d102      	bne.n	80031d4 <GPS_GSM_TrackerTask+0x1e8>
						timeSet_flag = false;
 80031ce:	f884 3271 	strb.w	r3, [r4, #625]	; 0x271
 80031d2:	e779      	b.n	80030c8 <GPS_GSM_TrackerTask+0xdc>
						GPRS_Mode = 0;
 80031d4:	f8c4 30ec 	str.w	r3, [r4, #236]	; 0xec
					GPRS_Run = false;
 80031d8:	f884 30e4 	strb.w	r3, [r4, #228]	; 0xe4
					break;
 80031dc:	e79a      	b.n	8003114 <GPS_GSM_TrackerTask+0x128>
				char Text[] =  {"Time is set to :     /r/n"};
 80031de:	ad03      	add	r5, sp, #12
 80031e0:	462f      	mov	r7, r5
 80031e2:	4a1e      	ldr	r2, [pc, #120]	; (800325c <GPS_GSM_TrackerTask+0x270>)
 80031e4:	f102 0318 	add.w	r3, r2, #24
 80031e8:	462e      	mov	r6, r5
 80031ea:	6810      	ldr	r0, [r2, #0]
 80031ec:	6851      	ldr	r1, [r2, #4]
 80031ee:	3208      	adds	r2, #8
 80031f0:	c603      	stmia	r6!, {r0, r1}
 80031f2:	429a      	cmp	r2, r3
 80031f4:	4635      	mov	r5, r6
 80031f6:	d1f7      	bne.n	80031e8 <GPS_GSM_TrackerTask+0x1fc>
 80031f8:	8813      	ldrh	r3, [r2, #0]
				itoa((uint32_t)Backup.Split.RTC_Interval,&ToCpy,NULL);
 80031fa:	4d19      	ldr	r5, [pc, #100]	; (8003260 <GPS_GSM_TrackerTask+0x274>)
				char Text[] =  {"Time is set to :     /r/n"};
 80031fc:	8033      	strh	r3, [r6, #0]
				itoa((uint32_t)Backup.Split.RTC_Interval,&ToCpy,NULL);
 80031fe:	2200      	movs	r2, #0
 8003200:	a902      	add	r1, sp, #8
 8003202:	f9b5 0000 	ldrsh.w	r0, [r5]
 8003206:	f7ff fc47 	bl	8002a98 <itoa>
				strcpy(Text + 15, ToCpy);
 800320a:	9902      	ldr	r1, [sp, #8]
 800320c:	f10d 001b 	add.w	r0, sp, #27
 8003210:	f000 fc06 	bl	8003a20 <strcpy>
				switch (GPRS_Task(GPRS_Run, &uart3_buffer_gsm, GPRS_RxMessage,
 8003214:	4a0d      	ldr	r2, [pc, #52]	; (800324c <GPS_GSM_TrackerTask+0x260>)
 8003216:	f894 00e4 	ldrb.w	r0, [r4, #228]	; 0xe4
 800321a:	9200      	str	r2, [sp, #0]
 800321c:	463b      	mov	r3, r7
 800321e:	f5a2 7280 	sub.w	r2, r2, #256	; 0x100
 8003222:	4906      	ldr	r1, [pc, #24]	; (800323c <GPS_GSM_TrackerTask+0x250>)
 8003224:	f7ff fca6 	bl	8002b74 <GPRS_Task>
 8003228:	2818      	cmp	r0, #24
 800322a:	f47f af40 	bne.w	80030ae <GPS_GSM_TrackerTask+0xc2>
					DBG_PRINT_TN("NOWY CZAS WYBUDZANIA USTAWIONY : ",Backup.Split.RTC_Interval);
 800322e:	8829      	ldrh	r1, [r5, #0]
 8003230:	480c      	ldr	r0, [pc, #48]	; (8003264 <GPS_GSM_TrackerTask+0x278>)
 8003232:	f7ff fab3 	bl	800279c <DBG_PRINT_TN>
 8003236:	e75e      	b.n	80030f6 <GPS_GSM_TrackerTask+0x10a>
				GPRS_Mode = 0;
 8003238:	2300      	movs	r3, #0
 800323a:	e74b      	b.n	80030d4 <GPS_GSM_TrackerTask+0xe8>
 800323c:	200005c0 	.word	0x200005c0
 8003240:	20000040 	.word	0x20000040
 8003244:	40010800 	.word	0x40010800
 8003248:	20000502 	.word	0x20000502
 800324c:	20000230 	.word	0x20000230
 8003250:	08003d3d 	.word	0x08003d3d
 8003254:	08003d52 	.word	0x08003d52
 8003258:	08003d71 	.word	0x08003d71
 800325c:	08003da6 	.word	0x08003da6
 8003260:	200004fc 	.word	0x200004fc
 8003264:	08003d84 	.word	0x08003d84

08003268 <MX_DMA_Init>:
  * Enable DMA controller clock
  */
void MX_DMA_Init(void) 
{
  /* DMA controller clock enable */
  __HAL_RCC_DMA1_CLK_ENABLE();
 8003268:	4b0e      	ldr	r3, [pc, #56]	; (80032a4 <MX_DMA_Init+0x3c>)
{
 800326a:	b507      	push	{r0, r1, r2, lr}
  __HAL_RCC_DMA1_CLK_ENABLE();
 800326c:	695a      	ldr	r2, [r3, #20]

  /* DMA interrupt init */
  /* DMA1_Channel3_IRQn interrupt configuration */
  HAL_NVIC_SetPriority(DMA1_Channel3_IRQn, 0, 0);
 800326e:	200d      	movs	r0, #13
  __HAL_RCC_DMA1_CLK_ENABLE();
 8003270:	f042 0201 	orr.w	r2, r2, #1
 8003274:	615a      	str	r2, [r3, #20]
  HAL_NVIC_SetPriority(DMA1_Channel3_IRQn, 0, 0);
 8003276:	2200      	movs	r2, #0
  __HAL_RCC_DMA1_CLK_ENABLE();
 8003278:	695b      	ldr	r3, [r3, #20]
  HAL_NVIC_SetPriority(DMA1_Channel3_IRQn, 0, 0);
 800327a:	4611      	mov	r1, r2
  __HAL_RCC_DMA1_CLK_ENABLE();
 800327c:	f003 0301 	and.w	r3, r3, #1
 8003280:	9301      	str	r3, [sp, #4]
 8003282:	9b01      	ldr	r3, [sp, #4]
  HAL_NVIC_SetPriority(DMA1_Channel3_IRQn, 0, 0);
 8003284:	f7fc ffd4 	bl	8000230 <HAL_NVIC_SetPriority>
  HAL_NVIC_EnableIRQ(DMA1_Channel3_IRQn);
 8003288:	200d      	movs	r0, #13
 800328a:	f7fd f805 	bl	8000298 <HAL_NVIC_EnableIRQ>
  /* DMA1_Channel6_IRQn interrupt configuration */
  HAL_NVIC_SetPriority(DMA1_Channel6_IRQn, 0, 0);
 800328e:	2200      	movs	r2, #0
 8003290:	2010      	movs	r0, #16
 8003292:	4611      	mov	r1, r2
 8003294:	f7fc ffcc 	bl	8000230 <HAL_NVIC_SetPriority>
  HAL_NVIC_EnableIRQ(DMA1_Channel6_IRQn);
 8003298:	2010      	movs	r0, #16
 800329a:	f7fc fffd 	bl	8000298 <HAL_NVIC_EnableIRQ>

}
 800329e:	b003      	add	sp, #12
 80032a0:	f85d fb04 	ldr.w	pc, [sp], #4
 80032a4:	40021000 	.word	0x40021000

080032a8 <MX_GPIO_Init>:
{

  GPIO_InitTypeDef GPIO_InitStruct;

  /* GPIO Ports Clock Enable */
  __HAL_RCC_GPIOC_CLK_ENABLE();
 80032a8:	4b4c      	ldr	r3, [pc, #304]	; (80033dc <MX_GPIO_Init+0x134>)
{
 80032aa:	e92d 47f0 	stmdb	sp!, {r4, r5, r6, r7, r8, r9, sl, lr}
  __HAL_RCC_GPIOC_CLK_ENABLE();
 80032ae:	699a      	ldr	r2, [r3, #24]
{
 80032b0:	b088      	sub	sp, #32
  __HAL_RCC_GPIOC_CLK_ENABLE();
 80032b2:	f042 0210 	orr.w	r2, r2, #16
 80032b6:	619a      	str	r2, [r3, #24]
 80032b8:	699a      	ldr	r2, [r3, #24]
  __HAL_RCC_GPIOD_CLK_ENABLE();
  __HAL_RCC_GPIOA_CLK_ENABLE();
  __HAL_RCC_GPIOB_CLK_ENABLE();

  /*Configure GPIO pin Output Level */
  HAL_GPIO_WritePin(QB_GSM_PWR_ON_GPIO_Port, QB_GSM_PWR_ON_Pin, GPIO_PIN_RESET);
 80032ba:	f8df a130 	ldr.w	sl, [pc, #304]	; 80033ec <MX_GPIO_Init+0x144>
  __HAL_RCC_GPIOC_CLK_ENABLE();
 80032be:	f002 0210 	and.w	r2, r2, #16
 80032c2:	9200      	str	r2, [sp, #0]
 80032c4:	9a00      	ldr	r2, [sp, #0]
  __HAL_RCC_GPIOD_CLK_ENABLE();
 80032c6:	699a      	ldr	r2, [r3, #24]

  /*Configure GPIO pin Output Level */
  HAL_GPIO_WritePin(GPIOA, QB_GPS_PWR_ON_Pin|QB_DEBUG_LED_GREEN_Pin|RST_RFM_Pin|QB_GSM_PWR_KEY_Pin, GPIO_PIN_RESET);
 80032c8:	f8df 9124 	ldr.w	r9, [pc, #292]	; 80033f0 <MX_GPIO_Init+0x148>
  __HAL_RCC_GPIOD_CLK_ENABLE();
 80032cc:	f042 0220 	orr.w	r2, r2, #32
 80032d0:	619a      	str	r2, [r3, #24]
 80032d2:	699a      	ldr	r2, [r3, #24]

  /*Configure GPIO pin Output Level */
  HAL_GPIO_WritePin(QB_SPI1_CS_GPIO_Port, QB_SPI1_CS_Pin, GPIO_PIN_RESET);
 80032d4:	4f42      	ldr	r7, [pc, #264]	; (80033e0 <MX_GPIO_Init+0x138>)
  __HAL_RCC_GPIOD_CLK_ENABLE();
 80032d6:	f002 0220 	and.w	r2, r2, #32
 80032da:	9201      	str	r2, [sp, #4]
 80032dc:	9a01      	ldr	r2, [sp, #4]
  __HAL_RCC_GPIOA_CLK_ENABLE();
 80032de:	699a      	ldr	r2, [r3, #24]
  HAL_GPIO_WritePin(QB_GSM_PWR_ON_GPIO_Port, QB_GSM_PWR_ON_Pin, GPIO_PIN_RESET);
 80032e0:	4650      	mov	r0, sl
  __HAL_RCC_GPIOA_CLK_ENABLE();
 80032e2:	f042 0204 	orr.w	r2, r2, #4
 80032e6:	619a      	str	r2, [r3, #24]
 80032e8:	699a      	ldr	r2, [r3, #24]
  HAL_GPIO_WritePin(QB_GSM_PWR_ON_GPIO_Port, QB_GSM_PWR_ON_Pin, GPIO_PIN_RESET);
 80032ea:	2102      	movs	r1, #2
  __HAL_RCC_GPIOA_CLK_ENABLE();
 80032ec:	f002 0204 	and.w	r2, r2, #4
 80032f0:	9202      	str	r2, [sp, #8]
 80032f2:	9a02      	ldr	r2, [sp, #8]
  __HAL_RCC_GPIOB_CLK_ENABLE();
 80032f4:	699a      	ldr	r2, [r3, #24]

  /*Configure GPIO pins : PC13 PC14 PC15 */
  GPIO_InitStruct.Pin = GPIO_PIN_13|GPIO_PIN_14|GPIO_PIN_15;
  GPIO_InitStruct.Mode = GPIO_MODE_ANALOG;
 80032f6:	2603      	movs	r6, #3
  __HAL_RCC_GPIOB_CLK_ENABLE();
 80032f8:	f042 0208 	orr.w	r2, r2, #8
 80032fc:	619a      	str	r2, [r3, #24]
 80032fe:	699b      	ldr	r3, [r3, #24]
  HAL_GPIO_WritePin(QB_GSM_PWR_ON_GPIO_Port, QB_GSM_PWR_ON_Pin, GPIO_PIN_RESET);
 8003300:	2200      	movs	r2, #0
  __HAL_RCC_GPIOB_CLK_ENABLE();
 8003302:	f003 0308 	and.w	r3, r3, #8
 8003306:	9303      	str	r3, [sp, #12]
 8003308:	9b03      	ldr	r3, [sp, #12]
  HAL_GPIO_WritePin(QB_GSM_PWR_ON_GPIO_Port, QB_GSM_PWR_ON_Pin, GPIO_PIN_RESET);
 800330a:	f7fd fa25 	bl	8000758 <HAL_GPIO_WritePin>
  HAL_GPIO_WritePin(GPIOA, QB_GPS_PWR_ON_Pin|QB_DEBUG_LED_GREEN_Pin|RST_RFM_Pin|QB_GSM_PWR_KEY_Pin, GPIO_PIN_RESET);
 800330e:	4648      	mov	r0, r9
 8003310:	2200      	movs	r2, #0
 8003312:	f248 1190 	movw	r1, #33168	; 0x8190
 8003316:	f7fd fa1f 	bl	8000758 <HAL_GPIO_WritePin>
  HAL_GPIO_WritePin(QB_SPI1_CS_GPIO_Port, QB_SPI1_CS_Pin, GPIO_PIN_RESET);
 800331a:	2200      	movs	r2, #0
 800331c:	4638      	mov	r0, r7
 800331e:	f44f 5180 	mov.w	r1, #4096	; 0x1000
 8003322:	f7fd fa19 	bl	8000758 <HAL_GPIO_WritePin>
  GPIO_InitStruct.Pin = GPIO_PIN_13|GPIO_PIN_14|GPIO_PIN_15;
 8003326:	f44f 4360 	mov.w	r3, #57344	; 0xe000
  HAL_GPIO_Init(GPIOC, &GPIO_InitStruct);

  /*Configure GPIO pin : PD0 */
  GPIO_InitStruct.Pin = GPIO_PIN_0;
 800332a:	f04f 0801 	mov.w	r8, #1
  HAL_GPIO_Init(GPIOD, &GPIO_InitStruct);

  /*Configure GPIO pin : PtPin */
  GPIO_InitStruct.Pin = QB_GSM_PWR_ON_Pin;
  GPIO_InitStruct.Mode = GPIO_MODE_OUTPUT_PP;
  GPIO_InitStruct.Pull = GPIO_NOPULL;
 800332e:	2400      	movs	r4, #0
  GPIO_InitStruct.Pin = QB_GSM_PWR_ON_Pin;
 8003330:	2502      	movs	r5, #2
  HAL_GPIO_Init(GPIOC, &GPIO_InitStruct);
 8003332:	a904      	add	r1, sp, #16
 8003334:	482b      	ldr	r0, [pc, #172]	; (80033e4 <MX_GPIO_Init+0x13c>)
  GPIO_InitStruct.Pin = GPIO_PIN_13|GPIO_PIN_14|GPIO_PIN_15;
 8003336:	9304      	str	r3, [sp, #16]
  GPIO_InitStruct.Mode = GPIO_MODE_ANALOG;
 8003338:	9605      	str	r6, [sp, #20]
  HAL_GPIO_Init(GPIOC, &GPIO_InitStruct);
 800333a:	f7fd f92d 	bl	8000598 <HAL_GPIO_Init>
  HAL_GPIO_Init(GPIOD, &GPIO_InitStruct);
 800333e:	a904      	add	r1, sp, #16
 8003340:	4650      	mov	r0, sl
  GPIO_InitStruct.Pin = GPIO_PIN_0;
 8003342:	f8cd 8010 	str.w	r8, [sp, #16]
  GPIO_InitStruct.Mode = GPIO_MODE_ANALOG;
 8003346:	9605      	str	r6, [sp, #20]
  HAL_GPIO_Init(GPIOD, &GPIO_InitStruct);
 8003348:	f7fd f926 	bl	8000598 <HAL_GPIO_Init>
  GPIO_InitStruct.Speed = GPIO_SPEED_FREQ_LOW;
  HAL_GPIO_Init(QB_GSM_PWR_ON_GPIO_Port, &GPIO_InitStruct);
 800334c:	a904      	add	r1, sp, #16
 800334e:	4650      	mov	r0, sl
  GPIO_InitStruct.Pin = QB_GSM_PWR_ON_Pin;
 8003350:	9504      	str	r5, [sp, #16]
  GPIO_InitStruct.Mode = GPIO_MODE_OUTPUT_PP;
 8003352:	f8cd 8014 	str.w	r8, [sp, #20]
  GPIO_InitStruct.Pull = GPIO_NOPULL;
 8003356:	9406      	str	r4, [sp, #24]
  GPIO_InitStruct.Speed = GPIO_SPEED_FREQ_LOW;
 8003358:	9507      	str	r5, [sp, #28]
  HAL_GPIO_Init(QB_GSM_PWR_ON_GPIO_Port, &GPIO_InitStruct);
 800335a:	f7fd f91d 	bl	8000598 <HAL_GPIO_Init>

  /*Configure GPIO pins : PA0 PA1 PA9 PA10 
                           PA11 PA12 */
  GPIO_InitStruct.Pin = GPIO_PIN_0|GPIO_PIN_1|GPIO_PIN_9|GPIO_PIN_10 
 800335e:	f641 6303 	movw	r3, #7683	; 0x1e03
                          |GPIO_PIN_11|GPIO_PIN_12;
  GPIO_InitStruct.Mode = GPIO_MODE_ANALOG;
  HAL_GPIO_Init(GPIOA, &GPIO_InitStruct);
 8003362:	a904      	add	r1, sp, #16
 8003364:	4648      	mov	r0, r9
  GPIO_InitStruct.Pin = GPIO_PIN_0|GPIO_PIN_1|GPIO_PIN_9|GPIO_PIN_10 
 8003366:	9304      	str	r3, [sp, #16]
  GPIO_InitStruct.Mode = GPIO_MODE_ANALOG;
 8003368:	9605      	str	r6, [sp, #20]
  HAL_GPIO_Init(GPIOA, &GPIO_InitStruct);
 800336a:	f7fd f915 	bl	8000598 <HAL_GPIO_Init>

  /*Configure GPIO pins : PAPin PAPin PAPin PAPin */
  GPIO_InitStruct.Pin = QB_GPS_PWR_ON_Pin|QB_DEBUG_LED_GREEN_Pin|RST_RFM_Pin|QB_GSM_PWR_KEY_Pin;
 800336e:	f248 1390 	movw	r3, #33168	; 0x8190
  GPIO_InitStruct.Mode = GPIO_MODE_OUTPUT_PP;
  GPIO_InitStruct.Pull = GPIO_NOPULL;
  GPIO_InitStruct.Speed = GPIO_SPEED_FREQ_LOW;
  HAL_GPIO_Init(GPIOA, &GPIO_InitStruct);
 8003372:	a904      	add	r1, sp, #16
 8003374:	4648      	mov	r0, r9
  GPIO_InitStruct.Pin = QB_GPS_PWR_ON_Pin|QB_DEBUG_LED_GREEN_Pin|RST_RFM_Pin|QB_GSM_PWR_KEY_Pin;
 8003376:	9304      	str	r3, [sp, #16]
  GPIO_InitStruct.Mode = GPIO_MODE_OUTPUT_PP;
 8003378:	f8cd 8014 	str.w	r8, [sp, #20]
  GPIO_InitStruct.Pull = GPIO_NOPULL;
 800337c:	9406      	str	r4, [sp, #24]
  GPIO_InitStruct.Speed = GPIO_SPEED_FREQ_LOW;
 800337e:	9507      	str	r5, [sp, #28]
  HAL_GPIO_Init(GPIOA, &GPIO_InitStruct);
 8003380:	f7fd f90a 	bl	8000598 <HAL_GPIO_Init>

  /*Configure GPIO pins : PAPin PAPin */
  GPIO_InitStruct.Pin = IN_2_Pin|IN_1_Pin;
 8003384:	2360      	movs	r3, #96	; 0x60
  GPIO_InitStruct.Mode = GPIO_MODE_INPUT;
  GPIO_InitStruct.Pull = GPIO_PULLDOWN;
  HAL_GPIO_Init(GPIOA, &GPIO_InitStruct);
 8003386:	a904      	add	r1, sp, #16
 8003388:	4648      	mov	r0, r9
  GPIO_InitStruct.Pin = IN_2_Pin|IN_1_Pin;
 800338a:	9304      	str	r3, [sp, #16]
  GPIO_InitStruct.Mode = GPIO_MODE_INPUT;
 800338c:	9405      	str	r4, [sp, #20]
  GPIO_InitStruct.Pull = GPIO_PULLDOWN;
 800338e:	9506      	str	r5, [sp, #24]
  HAL_GPIO_Init(GPIOA, &GPIO_InitStruct);
 8003390:	f7fd f902 	bl	8000598 <HAL_GPIO_Init>

  /*Configure GPIO pins : PBPin PBPin */
  GPIO_InitStruct.Pin = IB_EXTI2_RFM95_DIO0_Pin|IB_EXTI2_RFM95_DIO5_Pin;
  GPIO_InitStruct.Mode = GPIO_MODE_INPUT;
  GPIO_InitStruct.Pull = GPIO_NOPULL;
  HAL_GPIO_Init(GPIOB, &GPIO_InitStruct);
 8003394:	a904      	add	r1, sp, #16
 8003396:	4638      	mov	r0, r7
  GPIO_InitStruct.Pin = IB_EXTI2_RFM95_DIO0_Pin|IB_EXTI2_RFM95_DIO5_Pin;
 8003398:	9604      	str	r6, [sp, #16]
  GPIO_InitStruct.Mode = GPIO_MODE_INPUT;
 800339a:	9405      	str	r4, [sp, #20]
  GPIO_InitStruct.Pull = GPIO_NOPULL;
 800339c:	9406      	str	r4, [sp, #24]
  HAL_GPIO_Init(GPIOB, &GPIO_InitStruct);
 800339e:	f7fd f8fb 	bl	8000598 <HAL_GPIO_Init>

  /*Configure GPIO pins : PB2 PB3 PB4 PB5 
                           PB6 PB7 PB8 PB9 */
  GPIO_InitStruct.Pin = GPIO_PIN_2|GPIO_PIN_3|GPIO_PIN_4|GPIO_PIN_5 
 80033a2:	f44f 737f 	mov.w	r3, #1020	; 0x3fc
                          |GPIO_PIN_6|GPIO_PIN_7|GPIO_PIN_8|GPIO_PIN_9;
  GPIO_InitStruct.Mode = GPIO_MODE_ANALOG;
  HAL_GPIO_Init(GPIOB, &GPIO_InitStruct);
 80033a6:	a904      	add	r1, sp, #16
 80033a8:	4638      	mov	r0, r7
  GPIO_InitStruct.Pin = GPIO_PIN_2|GPIO_PIN_3|GPIO_PIN_4|GPIO_PIN_5 
 80033aa:	9304      	str	r3, [sp, #16]
  GPIO_InitStruct.Mode = GPIO_MODE_ANALOG;
 80033ac:	9605      	str	r6, [sp, #20]
  HAL_GPIO_Init(GPIOB, &GPIO_InitStruct);
 80033ae:	f7fd f8f3 	bl	8000598 <HAL_GPIO_Init>

  /*Configure GPIO pin : PtPin */
  GPIO_InitStruct.Pin = QB_SPI1_CS_Pin;
 80033b2:	f44f 5380 	mov.w	r3, #4096	; 0x1000
  GPIO_InitStruct.Mode = GPIO_MODE_OUTPUT_PP;
  GPIO_InitStruct.Pull = GPIO_NOPULL;
  GPIO_InitStruct.Speed = GPIO_SPEED_FREQ_LOW;
  HAL_GPIO_Init(QB_SPI1_CS_GPIO_Port, &GPIO_InitStruct);
 80033b6:	a904      	add	r1, sp, #16
 80033b8:	4638      	mov	r0, r7
  GPIO_InitStruct.Pin = QB_SPI1_CS_Pin;
 80033ba:	9304      	str	r3, [sp, #16]
  GPIO_InitStruct.Mode = GPIO_MODE_OUTPUT_PP;
 80033bc:	f8cd 8014 	str.w	r8, [sp, #20]
  GPIO_InitStruct.Pull = GPIO_NOPULL;
 80033c0:	9406      	str	r4, [sp, #24]
  GPIO_InitStruct.Speed = GPIO_SPEED_FREQ_LOW;
 80033c2:	9507      	str	r5, [sp, #28]
  HAL_GPIO_Init(QB_SPI1_CS_GPIO_Port, &GPIO_InitStruct);
 80033c4:	f7fd f8e8 	bl	8000598 <HAL_GPIO_Init>

  /*Configure peripheral I/O remapping */
  __HAL_AFIO_REMAP_PD01_ENABLE();
 80033c8:	4a07      	ldr	r2, [pc, #28]	; (80033e8 <MX_GPIO_Init+0x140>)
 80033ca:	6853      	ldr	r3, [r2, #4]
 80033cc:	f043 63e0 	orr.w	r3, r3, #117440512	; 0x7000000
 80033d0:	f443 4300 	orr.w	r3, r3, #32768	; 0x8000
 80033d4:	6053      	str	r3, [r2, #4]

}
 80033d6:	b008      	add	sp, #32
 80033d8:	e8bd 87f0 	ldmia.w	sp!, {r4, r5, r6, r7, r8, r9, sl, pc}
 80033dc:	40021000 	.word	0x40021000
 80033e0:	40010c00 	.word	0x40010c00
 80033e4:	40011000 	.word	0x40011000
 80033e8:	40010000 	.word	0x40010000
 80033ec:	40011400 	.word	0x40011400
 80033f0:	40010800 	.word	0x40010800

080033f4 <SystemClock_Config>:
  RCC_ClkInitTypeDef RCC_ClkInitStruct;
  RCC_PeriphCLKInitTypeDef PeriphClkInit;

    /**Initializes the CPU, AHB and APB busses clocks 
    */
  RCC_OscInitStruct.OscillatorType = RCC_OSCILLATORTYPE_HSI|RCC_OSCILLATORTYPE_LSI;
 80033f4:	230a      	movs	r3, #10
{
 80033f6:	b510      	push	{r4, lr}
 80033f8:	b094      	sub	sp, #80	; 0x50
  RCC_OscInitStruct.OscillatorType = RCC_OSCILLATORTYPE_HSI|RCC_OSCILLATORTYPE_LSI;
 80033fa:	930a      	str	r3, [sp, #40]	; 0x28
  RCC_OscInitStruct.HSIState = RCC_HSI_ON;
  RCC_OscInitStruct.HSICalibrationValue = 16;
 80033fc:	2310      	movs	r3, #16
  RCC_OscInitStruct.HSIState = RCC_HSI_ON;
 80033fe:	2401      	movs	r4, #1
  RCC_OscInitStruct.HSICalibrationValue = 16;
 8003400:	930f      	str	r3, [sp, #60]	; 0x3c
  RCC_OscInitStruct.LSIState = RCC_LSI_ON;
  RCC_OscInitStruct.PLL.PLLState = RCC_PLL_NONE;
 8003402:	2300      	movs	r3, #0
  if (HAL_RCC_OscConfig(&RCC_OscInitStruct) != HAL_OK)
 8003404:	a80a      	add	r0, sp, #40	; 0x28
  RCC_OscInitStruct.HSIState = RCC_HSI_ON;
 8003406:	940e      	str	r4, [sp, #56]	; 0x38
  RCC_OscInitStruct.LSIState = RCC_LSI_ON;
 8003408:	9410      	str	r4, [sp, #64]	; 0x40
  RCC_OscInitStruct.PLL.PLLState = RCC_PLL_NONE;
 800340a:	9311      	str	r3, [sp, #68]	; 0x44
  if (HAL_RCC_OscConfig(&RCC_OscInitStruct) != HAL_OK)
 800340c:	f7fd f9da 	bl	80007c4 <HAL_RCC_OscConfig>
 8003410:	4601      	mov	r1, r0
 8003412:	b100      	cbz	r0, 8003416 <SystemClock_Config+0x22>
 8003414:	e7fe      	b.n	8003414 <SystemClock_Config+0x20>
    _Error_Handler(__FILE__, __LINE__);
  }

    /**Initializes the CPU, AHB and APB busses clocks 
    */
  RCC_ClkInitStruct.ClockType = RCC_CLOCKTYPE_HCLK|RCC_CLOCKTYPE_SYSCLK
 8003416:	230f      	movs	r3, #15
                              |RCC_CLOCKTYPE_PCLK1|RCC_CLOCKTYPE_PCLK2;
  RCC_ClkInitStruct.SYSCLKSource = RCC_SYSCLKSOURCE_HSI;
 8003418:	9006      	str	r0, [sp, #24]
  RCC_ClkInitStruct.AHBCLKDivider = RCC_SYSCLK_DIV1;
 800341a:	9007      	str	r0, [sp, #28]
  RCC_ClkInitStruct.APB1CLKDivider = RCC_HCLK_DIV1;
 800341c:	9008      	str	r0, [sp, #32]
  RCC_ClkInitStruct.APB2CLKDivider = RCC_HCLK_DIV1;
 800341e:	9009      	str	r0, [sp, #36]	; 0x24

  if (HAL_RCC_ClockConfig(&RCC_ClkInitStruct, FLASH_LATENCY_0) != HAL_OK)
 8003420:	a805      	add	r0, sp, #20
  RCC_ClkInitStruct.ClockType = RCC_CLOCKTYPE_HCLK|RCC_CLOCKTYPE_SYSCLK
 8003422:	9305      	str	r3, [sp, #20]
  if (HAL_RCC_ClockConfig(&RCC_ClkInitStruct, FLASH_LATENCY_0) != HAL_OK)
 8003424:	f7fd fb96 	bl	8000b54 <HAL_RCC_ClockConfig>
 8003428:	b100      	cbz	r0, 800342c <SystemClock_Config+0x38>
 800342a:	e7fe      	b.n	800342a <SystemClock_Config+0x36>
  {
    _Error_Handler(__FILE__, __LINE__);
  }

  PeriphClkInit.PeriphClockSelection = RCC_PERIPHCLK_RTC;
  PeriphClkInit.RTCClockSelection = RCC_RTCCLKSOURCE_LSI;
 800342c:	f44f 7300 	mov.w	r3, #512	; 0x200
  if (HAL_RCCEx_PeriphCLKConfig(&PeriphClkInit) != HAL_OK)
 8003430:	a801      	add	r0, sp, #4
  PeriphClkInit.PeriphClockSelection = RCC_PERIPHCLK_RTC;
 8003432:	9401      	str	r4, [sp, #4]
  PeriphClkInit.RTCClockSelection = RCC_RTCCLKSOURCE_LSI;
 8003434:	9302      	str	r3, [sp, #8]
  if (HAL_RCCEx_PeriphCLKConfig(&PeriphClkInit) != HAL_OK)
 8003436:	f7fd fc57 	bl	8000ce8 <HAL_RCCEx_PeriphCLKConfig>
 800343a:	4604      	mov	r4, r0
 800343c:	b100      	cbz	r0, 8003440 <SystemClock_Config+0x4c>
 800343e:	e7fe      	b.n	800343e <SystemClock_Config+0x4a>
    _Error_Handler(__FILE__, __LINE__);
  }

    /**Configure the Systick interrupt time 
    */
  HAL_SYSTICK_Config(HAL_RCC_GetHCLKFreq()/1000);
 8003440:	f7fd fc2c 	bl	8000c9c <HAL_RCC_GetHCLKFreq>
 8003444:	f44f 737a 	mov.w	r3, #1000	; 0x3e8
 8003448:	fbb0 f0f3 	udiv	r0, r0, r3
 800344c:	f7fc ff30 	bl	80002b0 <HAL_SYSTICK_Config>

    /**Configure the Systick 
    */
  HAL_SYSTICK_CLKSourceConfig(SYSTICK_CLKSOURCE_HCLK);
 8003450:	2004      	movs	r0, #4
 8003452:	f7fc ff43 	bl	80002dc <HAL_SYSTICK_CLKSourceConfig>

  /* SysTick_IRQn interrupt configuration */
  HAL_NVIC_SetPriority(SysTick_IRQn, 0, 0);
 8003456:	4622      	mov	r2, r4
 8003458:	4621      	mov	r1, r4
 800345a:	f04f 30ff 	mov.w	r0, #4294967295
 800345e:	f7fc fee7 	bl	8000230 <HAL_NVIC_SetPriority>
}
 8003462:	b014      	add	sp, #80	; 0x50
 8003464:	bd10      	pop	{r4, pc}

08003466 <main>:
{
 8003466:	b508      	push	{r3, lr}
 HAL_Init();
 8003468:	f7fc fe9a 	bl	80001a0 <HAL_Init>
  SystemClock_Config();
 800346c:	f7ff ffc2 	bl	80033f4 <SystemClock_Config>
  MX_GPIO_Init();
 8003470:	f7ff ff1a 	bl	80032a8 <MX_GPIO_Init>
  MX_DMA_Init();
 8003474:	f7ff fef8 	bl	8003268 <MX_DMA_Init>
  MX_USART2_UART_Init();
 8003478:	f000 f97c 	bl	8003774 <MX_USART2_UART_Init>
  MX_USART3_UART_Init();
 800347c:	f000 f99a 	bl	80037b4 <MX_USART3_UART_Init>
  MX_SPI2_Init();
 8003480:	f000 f874 	bl	800356c <MX_SPI2_Init>
  MX_RTC_Init();
 8003484:	f000 f80c 	bl	80034a0 <MX_RTC_Init>
  GPS_GSM_Tracker_init();
 8003488:	f7ff fa92 	bl	80029b0 <GPS_GSM_Tracker_init>
      if (RTC_WakeUp())
 800348c:	f7ff fa1e 	bl	80028cc <RTC_WakeUp>
 8003490:	b910      	cbnz	r0, 8003498 <main+0x32>
     RTC_GoSleep();
 8003492:	f7ff fa4b 	bl	800292c <RTC_GoSleep>
      if (RTC_WakeUp())
 8003496:	e7f9      	b.n	800348c <main+0x26>
          while (GPS_GSM_TrackerTask()) {};
 8003498:	f7ff fda8 	bl	8002fec <GPS_GSM_TrackerTask>
 800349c:	e7f8      	b.n	8003490 <main+0x2a>

0800349e <_Error_Handler>:
  * @param  file: The file name as string.
  * @param  line: The line in file as a number.
  * @retval None
  */
void _Error_Handler(char *file, int line)
{
 800349e:	e7fe      	b.n	800349e <_Error_Handler>

080034a0 <MX_RTC_Init>:

RTC_HandleTypeDef hrtc;

/* RTC init function */
void MX_RTC_Init(void)
{
 80034a0:	b507      	push	{r0, r1, r2, lr}

    /**Initialize RTC Only 
    */
  hrtc.Instance = RTC;
  hrtc.Init.AsynchPrediv = RTC_AUTO_1_SECOND;
  hrtc.Init.OutPut = RTC_OUTPUTSOURCE_NONE;
 80034a2:	2300      	movs	r3, #0
 80034a4:	f04f 32ff 	mov.w	r2, #4294967295
  hrtc.Instance = RTC;
 80034a8:	481a      	ldr	r0, [pc, #104]	; (8003514 <MX_RTC_Init+0x74>)
  hrtc.Init.OutPut = RTC_OUTPUTSOURCE_NONE;
 80034aa:	491b      	ldr	r1, [pc, #108]	; (8003518 <MX_RTC_Init+0x78>)
 80034ac:	e880 000e 	stmia.w	r0, {r1, r2, r3}
  if (HAL_RTC_Init(&hrtc) != HAL_OK)
 80034b0:	f7fd ffc8 	bl	8001444 <HAL_RTC_Init>
 80034b4:	b118      	cbz	r0, 80034be <MX_RTC_Init+0x1e>
  {
    _Error_Handler(__FILE__, __LINE__);
 80034b6:	213f      	movs	r1, #63	; 0x3f
 80034b8:	4818      	ldr	r0, [pc, #96]	; (800351c <MX_RTC_Init+0x7c>)
 80034ba:	f7ff fff0 	bl	800349e <_Error_Handler>

  /* USER CODE END RTC_Init 2 */

    /**Initialize RTC and set the Time and Date 
    */
  sTime.Hours = BUILD_HOUR_BCD;
 80034be:	2314      	movs	r3, #20
 80034c0:	f88d 3000 	strb.w	r3, [sp]
  sTime.Minutes = BUILD_MIN_BCD;
 80034c4:	2319      	movs	r3, #25
 80034c6:	f88d 3001 	strb.w	r3, [sp, #1]
  sTime.Seconds = BUILD_SEC_BCD;
 80034ca:	2341      	movs	r3, #65	; 0x41

  if (HAL_RTC_SetTime(&hrtc, &sTime, RTC_FORMAT_BCD) != HAL_OK)
 80034cc:	2201      	movs	r2, #1
 80034ce:	4669      	mov	r1, sp
 80034d0:	4810      	ldr	r0, [pc, #64]	; (8003514 <MX_RTC_Init+0x74>)
  sTime.Seconds = BUILD_SEC_BCD;
 80034d2:	f88d 3002 	strb.w	r3, [sp, #2]
  if (HAL_RTC_SetTime(&hrtc, &sTime, RTC_FORMAT_BCD) != HAL_OK)
 80034d6:	f7fd fdaf 	bl	8001038 <HAL_RTC_SetTime>
 80034da:	b118      	cbz	r0, 80034e4 <MX_RTC_Init+0x44>
  {
    _Error_Handler(__FILE__, __LINE__);
 80034dc:	214d      	movs	r1, #77	; 0x4d
 80034de:	480f      	ldr	r0, [pc, #60]	; (800351c <MX_RTC_Init+0x7c>)
 80034e0:	f7ff ffdd 	bl	800349e <_Error_Handler>
  /* USER CODE BEGIN RTC_Init 3 */

  /* USER CODE END RTC_Init 3 */

  DateToUpdate.WeekDay = RTC_WEEKDAY_MONDAY; // not really important
  DateToUpdate.Month = BUILD_MONTH_BCD;
 80034e4:	2312      	movs	r3, #18
 80034e6:	f88d 3005 	strb.w	r3, [sp, #5]
  DateToUpdate.Date = BUILD_DAY_BCD;
 80034ea:	2310      	movs	r3, #16
  DateToUpdate.WeekDay = RTC_WEEKDAY_MONDAY; // not really important
 80034ec:	2201      	movs	r2, #1
  DateToUpdate.Date = BUILD_DAY_BCD;
 80034ee:	f88d 3006 	strb.w	r3, [sp, #6]
  DateToUpdate.Year = BUILD_YEAR_BCD;
 80034f2:	2318      	movs	r3, #24

  if (HAL_RTC_SetDate(&hrtc, &DateToUpdate, RTC_FORMAT_BCD) != HAL_OK)
 80034f4:	a901      	add	r1, sp, #4
 80034f6:	4807      	ldr	r0, [pc, #28]	; (8003514 <MX_RTC_Init+0x74>)
  DateToUpdate.WeekDay = RTC_WEEKDAY_MONDAY; // not really important
 80034f8:	f88d 2004 	strb.w	r2, [sp, #4]
  DateToUpdate.Year = BUILD_YEAR_BCD;
 80034fc:	f88d 3007 	strb.w	r3, [sp, #7]
  if (HAL_RTC_SetDate(&hrtc, &DateToUpdate, RTC_FORMAT_BCD) != HAL_OK)
 8003500:	f7fd fea2 	bl	8001248 <HAL_RTC_SetDate>
 8003504:	b118      	cbz	r0, 800350e <MX_RTC_Init+0x6e>
  {
    _Error_Handler(__FILE__, __LINE__);
 8003506:	215a      	movs	r1, #90	; 0x5a
 8003508:	4804      	ldr	r0, [pc, #16]	; (800351c <MX_RTC_Init+0x7c>)
 800350a:	f7ff ffc8 	bl	800349e <_Error_Handler>
  }
  /* USER CODE BEGIN RTC_Init 4 */

  /* USER CODE END RTC_Init 4 */

}
 800350e:	b003      	add	sp, #12
 8003510:	f85d fb04 	ldr.w	pc, [sp], #4
 8003514:	200007e4 	.word	0x200007e4
 8003518:	40002800 	.word	0x40002800
 800351c:	08003dc0 	.word	0x08003dc0

08003520 <HAL_RTC_MspInit>:

void HAL_RTC_MspInit(RTC_HandleTypeDef* rtcHandle)
{
 8003520:	b507      	push	{r0, r1, r2, lr}

  if(rtcHandle->Instance==RTC)
 8003522:	4b0f      	ldr	r3, [pc, #60]	; (8003560 <HAL_RTC_MspInit+0x40>)
 8003524:	6802      	ldr	r2, [r0, #0]
 8003526:	429a      	cmp	r2, r3
 8003528:	d116      	bne.n	8003558 <HAL_RTC_MspInit+0x38>
  {
  /* USER CODE BEGIN RTC_MspInit 0 */

  /* USER CODE END RTC_MspInit 0 */
    HAL_PWR_EnableBkUpAccess();
 800352a:	f7fd f921 	bl	8000770 <HAL_PWR_EnableBkUpAccess>
    /* Enable BKP CLK enable for backup registers */
    __HAL_RCC_BKP_CLK_ENABLE();
 800352e:	4b0d      	ldr	r3, [pc, #52]	; (8003564 <HAL_RTC_MspInit+0x44>)
    /* RTC clock enable */
    __HAL_RCC_RTC_ENABLE();

    /* RTC interrupt Init */
    HAL_NVIC_SetPriority(RTC_Alarm_IRQn, 0, 0);
 8003530:	2029      	movs	r0, #41	; 0x29
    __HAL_RCC_BKP_CLK_ENABLE();
 8003532:	69da      	ldr	r2, [r3, #28]
 8003534:	f042 6200 	orr.w	r2, r2, #134217728	; 0x8000000
 8003538:	61da      	str	r2, [r3, #28]
    __HAL_RCC_RTC_ENABLE();
 800353a:	2201      	movs	r2, #1
    __HAL_RCC_BKP_CLK_ENABLE();
 800353c:	69db      	ldr	r3, [r3, #28]
 800353e:	f003 6300 	and.w	r3, r3, #134217728	; 0x8000000
 8003542:	9301      	str	r3, [sp, #4]
 8003544:	9b01      	ldr	r3, [sp, #4]
    __HAL_RCC_RTC_ENABLE();
 8003546:	4b08      	ldr	r3, [pc, #32]	; (8003568 <HAL_RTC_MspInit+0x48>)
 8003548:	601a      	str	r2, [r3, #0]
    HAL_NVIC_SetPriority(RTC_Alarm_IRQn, 0, 0);
 800354a:	2200      	movs	r2, #0
 800354c:	4611      	mov	r1, r2
 800354e:	f7fc fe6f 	bl	8000230 <HAL_NVIC_SetPriority>
    HAL_NVIC_EnableIRQ(RTC_Alarm_IRQn);
 8003552:	2029      	movs	r0, #41	; 0x29
 8003554:	f7fc fea0 	bl	8000298 <HAL_NVIC_EnableIRQ>
  /* USER CODE BEGIN RTC_MspInit 1 */

  /* USER CODE END RTC_MspInit 1 */
  }
}
 8003558:	b003      	add	sp, #12
 800355a:	f85d fb04 	ldr.w	pc, [sp], #4
 800355e:	bf00      	nop
 8003560:	40002800 	.word	0x40002800
 8003564:	40021000 	.word	0x40021000
 8003568:	4242043c 	.word	0x4242043c

0800356c <MX_SPI2_Init>:

SPI_HandleTypeDef hspi2;

/* SPI2 init function */
void MX_SPI2_Init(void)
{
 800356c:	b508      	push	{r3, lr}

  hspi2.Instance = SPI2;
  hspi2.Init.Mode = SPI_MODE_MASTER;
 800356e:	f44f 7e82 	mov.w	lr, #260	; 0x104
  hspi2.Instance = SPI2;
 8003572:	480e      	ldr	r0, [pc, #56]	; (80035ac <MX_SPI2_Init+0x40>)
  hspi2.Init.Mode = SPI_MODE_MASTER;
 8003574:	4b0e      	ldr	r3, [pc, #56]	; (80035b0 <MX_SPI2_Init+0x44>)
  hspi2.Init.Direction = SPI_DIRECTION_2LINES;
  hspi2.Init.DataSize = SPI_DATASIZE_8BIT;
  hspi2.Init.CLKPolarity = SPI_POLARITY_LOW;
  hspi2.Init.CLKPhase = SPI_PHASE_1EDGE;
  hspi2.Init.NSS = SPI_NSS_SOFT;
 8003576:	f44f 7200 	mov.w	r2, #512	; 0x200
  hspi2.Init.Mode = SPI_MODE_MASTER;
 800357a:	e880 4008 	stmia.w	r0, {r3, lr}
  hspi2.Init.Direction = SPI_DIRECTION_2LINES;
 800357e:	2300      	movs	r3, #0
 8003580:	6083      	str	r3, [r0, #8]
  hspi2.Init.DataSize = SPI_DATASIZE_8BIT;
 8003582:	60c3      	str	r3, [r0, #12]
  hspi2.Init.CLKPolarity = SPI_POLARITY_LOW;
 8003584:	6103      	str	r3, [r0, #16]
  hspi2.Init.CLKPhase = SPI_PHASE_1EDGE;
 8003586:	6143      	str	r3, [r0, #20]
  hspi2.Init.BaudRatePrescaler = SPI_BAUDRATEPRESCALER_2;
 8003588:	61c3      	str	r3, [r0, #28]
  hspi2.Init.FirstBit = SPI_FIRSTBIT_MSB;
 800358a:	6203      	str	r3, [r0, #32]
  hspi2.Init.TIMode = SPI_TIMODE_DISABLE;
 800358c:	6243      	str	r3, [r0, #36]	; 0x24
  hspi2.Init.CRCCalculation = SPI_CRCCALCULATION_DISABLE;
 800358e:	6283      	str	r3, [r0, #40]	; 0x28
  hspi2.Init.CRCPolynomial = 10;
 8003590:	230a      	movs	r3, #10
  hspi2.Init.NSS = SPI_NSS_SOFT;
 8003592:	6182      	str	r2, [r0, #24]
  hspi2.Init.CRCPolynomial = 10;
 8003594:	62c3      	str	r3, [r0, #44]	; 0x2c
  if (HAL_SPI_Init(&hspi2) != HAL_OK)
 8003596:	f7fe f8f9 	bl	800178c <HAL_SPI_Init>
 800359a:	b128      	cbz	r0, 80035a8 <MX_SPI2_Init+0x3c>
  {
    _Error_Handler(__FILE__, __LINE__);
  }

}
 800359c:	e8bd 4008 	ldmia.w	sp!, {r3, lr}
    _Error_Handler(__FILE__, __LINE__);
 80035a0:	2145      	movs	r1, #69	; 0x45
 80035a2:	4804      	ldr	r0, [pc, #16]	; (80035b4 <MX_SPI2_Init+0x48>)
 80035a4:	f7ff bf7b 	b.w	800349e <_Error_Handler>
 80035a8:	bd08      	pop	{r3, pc}
 80035aa:	bf00      	nop
 80035ac:	200007f8 	.word	0x200007f8
 80035b0:	40003800 	.word	0x40003800
 80035b4:	08003dcd 	.word	0x08003dcd

080035b8 <HAL_SPI_MspInit>:

void HAL_SPI_MspInit(SPI_HandleTypeDef* spiHandle)
{
 80035b8:	b57f      	push	{r0, r1, r2, r3, r4, r5, r6, lr}

  GPIO_InitTypeDef GPIO_InitStruct;
  if(spiHandle->Instance==SPI2)
 80035ba:	6802      	ldr	r2, [r0, #0]
 80035bc:	4b12      	ldr	r3, [pc, #72]	; (8003608 <HAL_SPI_MspInit+0x50>)
 80035be:	429a      	cmp	r2, r3
 80035c0:	d11f      	bne.n	8003602 <HAL_SPI_MspInit+0x4a>
  {
  /* USER CODE BEGIN SPI2_MspInit 0 */

  /* USER CODE END SPI2_MspInit 0 */
    /* SPI2 clock enable */
    __HAL_RCC_SPI2_CLK_ENABLE();
 80035c2:	f503 33ec 	add.w	r3, r3, #120832	; 0x1d800
 80035c6:	69da      	ldr	r2, [r3, #28]
    PB15     ------> SPI2_MOSI 
    */
    GPIO_InitStruct.Pin = GPIO_PIN_13|GPIO_PIN_15;
    GPIO_InitStruct.Mode = GPIO_MODE_AF_PP;
    GPIO_InitStruct.Speed = GPIO_SPEED_FREQ_HIGH;
    HAL_GPIO_Init(GPIOB, &GPIO_InitStruct);
 80035c8:	a902      	add	r1, sp, #8
    __HAL_RCC_SPI2_CLK_ENABLE();
 80035ca:	f442 4280 	orr.w	r2, r2, #16384	; 0x4000
 80035ce:	61da      	str	r2, [r3, #28]
 80035d0:	69db      	ldr	r3, [r3, #28]
    HAL_GPIO_Init(GPIOB, &GPIO_InitStruct);
 80035d2:	480e      	ldr	r0, [pc, #56]	; (800360c <HAL_SPI_MspInit+0x54>)
    __HAL_RCC_SPI2_CLK_ENABLE();
 80035d4:	f403 4380 	and.w	r3, r3, #16384	; 0x4000
 80035d8:	9301      	str	r3, [sp, #4]
 80035da:	9b01      	ldr	r3, [sp, #4]
    GPIO_InitStruct.Pin = GPIO_PIN_13|GPIO_PIN_15;
 80035dc:	f44f 4320 	mov.w	r3, #40960	; 0xa000
 80035e0:	9302      	str	r3, [sp, #8]
    GPIO_InitStruct.Mode = GPIO_MODE_AF_PP;
 80035e2:	2302      	movs	r3, #2
 80035e4:	9303      	str	r3, [sp, #12]
    GPIO_InitStruct.Speed = GPIO_SPEED_FREQ_HIGH;
 80035e6:	2303      	movs	r3, #3
 80035e8:	9305      	str	r3, [sp, #20]
    HAL_GPIO_Init(GPIOB, &GPIO_InitStruct);
 80035ea:	f7fc ffd5 	bl	8000598 <HAL_GPIO_Init>

    GPIO_InitStruct.Pin = GPIO_PIN_14;
 80035ee:	f44f 4380 	mov.w	r3, #16384	; 0x4000
 80035f2:	9302      	str	r3, [sp, #8]
    GPIO_InitStruct.Mode = GPIO_MODE_INPUT;
 80035f4:	2300      	movs	r3, #0
    GPIO_InitStruct.Pull = GPIO_NOPULL;
    HAL_GPIO_Init(GPIOB, &GPIO_InitStruct);
 80035f6:	a902      	add	r1, sp, #8
 80035f8:	4804      	ldr	r0, [pc, #16]	; (800360c <HAL_SPI_MspInit+0x54>)
    GPIO_InitStruct.Mode = GPIO_MODE_INPUT;
 80035fa:	9303      	str	r3, [sp, #12]
    GPIO_InitStruct.Pull = GPIO_NOPULL;
 80035fc:	9304      	str	r3, [sp, #16]
    HAL_GPIO_Init(GPIOB, &GPIO_InitStruct);
 80035fe:	f7fc ffcb 	bl	8000598 <HAL_GPIO_Init>

  /* USER CODE BEGIN SPI2_MspInit 1 */

  /* USER CODE END SPI2_MspInit 1 */
  }
}
 8003602:	b007      	add	sp, #28
 8003604:	f85d fb04 	ldr.w	pc, [sp], #4
 8003608:	40003800 	.word	0x40003800
 800360c:	40010c00 	.word	0x40010c00

08003610 <HAL_MspInit>:
{
  /* USER CODE BEGIN MspInit 0 */

  /* USER CODE END MspInit 0 */

  __HAL_RCC_AFIO_CLK_ENABLE();
 8003610:	4b25      	ldr	r3, [pc, #148]	; (80036a8 <HAL_MspInit+0x98>)
{
 8003612:	b507      	push	{r0, r1, r2, lr}
  __HAL_RCC_AFIO_CLK_ENABLE();
 8003614:	699a      	ldr	r2, [r3, #24]
  __HAL_RCC_PWR_CLK_ENABLE();

  HAL_NVIC_SetPriorityGrouping(NVIC_PRIORITYGROUP_4);
 8003616:	2003      	movs	r0, #3
  __HAL_RCC_AFIO_CLK_ENABLE();
 8003618:	f042 0201 	orr.w	r2, r2, #1
 800361c:	619a      	str	r2, [r3, #24]
 800361e:	699a      	ldr	r2, [r3, #24]
 8003620:	f002 0201 	and.w	r2, r2, #1
 8003624:	9200      	str	r2, [sp, #0]
 8003626:	9a00      	ldr	r2, [sp, #0]
  __HAL_RCC_PWR_CLK_ENABLE();
 8003628:	69da      	ldr	r2, [r3, #28]
 800362a:	f042 5280 	orr.w	r2, r2, #268435456	; 0x10000000
 800362e:	61da      	str	r2, [r3, #28]
 8003630:	69db      	ldr	r3, [r3, #28]
 8003632:	f003 5380 	and.w	r3, r3, #268435456	; 0x10000000
 8003636:	9301      	str	r3, [sp, #4]
 8003638:	9b01      	ldr	r3, [sp, #4]
  HAL_NVIC_SetPriorityGrouping(NVIC_PRIORITYGROUP_4);
 800363a:	f7fc fde7 	bl	800020c <HAL_NVIC_SetPriorityGrouping>

  /* System interrupt init*/
  /* MemoryManagement_IRQn interrupt configuration */
  HAL_NVIC_SetPriority(MemoryManagement_IRQn, 0, 0);
 800363e:	2200      	movs	r2, #0
 8003640:	f06f 000b 	mvn.w	r0, #11
 8003644:	4611      	mov	r1, r2
 8003646:	f7fc fdf3 	bl	8000230 <HAL_NVIC_SetPriority>
  /* BusFault_IRQn interrupt configuration */
  HAL_NVIC_SetPriority(BusFault_IRQn, 0, 0);
 800364a:	2200      	movs	r2, #0
 800364c:	f06f 000a 	mvn.w	r0, #10
 8003650:	4611      	mov	r1, r2
 8003652:	f7fc fded 	bl	8000230 <HAL_NVIC_SetPriority>
  /* UsageFault_IRQn interrupt configuration */
  HAL_NVIC_SetPriority(UsageFault_IRQn, 0, 0);
 8003656:	2200      	movs	r2, #0
 8003658:	f06f 0009 	mvn.w	r0, #9
 800365c:	4611      	mov	r1, r2
 800365e:	f7fc fde7 	bl	8000230 <HAL_NVIC_SetPriority>
  /* SVCall_IRQn interrupt configuration */
  HAL_NVIC_SetPriority(SVCall_IRQn, 0, 0);
 8003662:	2200      	movs	r2, #0
 8003664:	f06f 0004 	mvn.w	r0, #4
 8003668:	4611      	mov	r1, r2
 800366a:	f7fc fde1 	bl	8000230 <HAL_NVIC_SetPriority>
  /* DebugMonitor_IRQn interrupt configuration */
  HAL_NVIC_SetPriority(DebugMonitor_IRQn, 0, 0);
 800366e:	2200      	movs	r2, #0
 8003670:	f06f 0003 	mvn.w	r0, #3
 8003674:	4611      	mov	r1, r2
 8003676:	f7fc fddb 	bl	8000230 <HAL_NVIC_SetPriority>
  /* PendSV_IRQn interrupt configuration */
  HAL_NVIC_SetPriority(PendSV_IRQn, 0, 0);
 800367a:	2200      	movs	r2, #0
 800367c:	f06f 0001 	mvn.w	r0, #1
 8003680:	4611      	mov	r1, r2
 8003682:	f7fc fdd5 	bl	8000230 <HAL_NVIC_SetPriority>
  /* SysTick_IRQn interrupt configuration */
  HAL_NVIC_SetPriority(SysTick_IRQn, 0, 0);
 8003686:	2200      	movs	r2, #0
 8003688:	f04f 30ff 	mov.w	r0, #4294967295
 800368c:	4611      	mov	r1, r2
 800368e:	f7fc fdcf 	bl	8000230 <HAL_NVIC_SetPriority>

    /**NOJTAG: JTAG-DP Disabled and SW-DP Enabled 
    */
  __HAL_AFIO_REMAP_SWJ_NOJTAG();
 8003692:	4a06      	ldr	r2, [pc, #24]	; (80036ac <HAL_MspInit+0x9c>)
 8003694:	6853      	ldr	r3, [r2, #4]
 8003696:	f023 63e0 	bic.w	r3, r3, #117440512	; 0x7000000
 800369a:	f043 7300 	orr.w	r3, r3, #33554432	; 0x2000000
 800369e:	6053      	str	r3, [r2, #4]

  /* USER CODE BEGIN MspInit 1 */

  /* USER CODE END MspInit 1 */
}
 80036a0:	b003      	add	sp, #12
 80036a2:	f85d fb04 	ldr.w	pc, [sp], #4
 80036a6:	bf00      	nop
 80036a8:	40021000 	.word	0x40021000
 80036ac:	40010000 	.word	0x40010000

080036b0 <NMI_Handler>:
 80036b0:	4770      	bx	lr
	...

080036b4 <HardFault_Handler>:

/**
* @brief This function handles Hard fault interrupt.
*/
void HardFault_Handler(void)
{
 80036b4:	b508      	push	{r3, lr}

  /* USER CODE END HardFault_IRQn 0 */
  while (1)
  {
    /* USER CODE BEGIN W1_HardFault_IRQn 0 */
      HAL_GPIO_TogglePin(QB_DEBUG_LED_GREEN_GPIO_Port, QB_DEBUG_LED_GREEN_Pin);
 80036b6:	4c05      	ldr	r4, [pc, #20]	; (80036cc <HardFault_Handler+0x18>)
 80036b8:	4620      	mov	r0, r4
 80036ba:	2180      	movs	r1, #128	; 0x80
 80036bc:	f7fd f851 	bl	8000762 <HAL_GPIO_TogglePin>
      HAL_Delay(500);
 80036c0:	f44f 70fa 	mov.w	r0, #500	; 0x1f4
 80036c4:	f7fc fd90 	bl	80001e8 <HAL_Delay>
 80036c8:	e7f6      	b.n	80036b8 <HardFault_Handler+0x4>
 80036ca:	bf00      	nop
 80036cc:	40010800 	.word	0x40010800

080036d0 <MemManage_Handler>:

/**
* @brief This function handles Memory management fault.
*/
void MemManage_Handler(void)
{
 80036d0:	e7fe      	b.n	80036d0 <MemManage_Handler>

080036d2 <BusFault_Handler>:

/**
* @brief This function handles Prefetch fault, memory access fault.
*/
void BusFault_Handler(void)
{
 80036d2:	e7fe      	b.n	80036d2 <BusFault_Handler>

080036d4 <UsageFault_Handler>:

/**
* @brief This function handles Undefined instruction or illegal state.
*/
void UsageFault_Handler(void)
{
 80036d4:	e7fe      	b.n	80036d4 <UsageFault_Handler>

080036d6 <SVC_Handler>:
 80036d6:	4770      	bx	lr

080036d8 <DebugMon_Handler>:
 80036d8:	4770      	bx	lr

080036da <PendSV_Handler>:

/**
* @brief This function handles Pendable request for system service.
*/
void PendSV_Handler(void)
{
 80036da:	4770      	bx	lr

080036dc <SysTick_Handler>:

/**
* @brief This function handles System tick timer.
*/
void SysTick_Handler(void)
{
 80036dc:	b508      	push	{r3, lr}
  /* USER CODE BEGIN SysTick_IRQn 0 */

  /* USER CODE END SysTick_IRQn 0 */
  HAL_IncTick();
 80036de:	f7fc fd71 	bl	80001c4 <HAL_IncTick>
  HAL_SYSTICK_IRQHandler();
  /* USER CODE BEGIN SysTick_IRQn 1 */

  /* USER CODE END SysTick_IRQn 1 */
}
 80036e2:	e8bd 4008 	ldmia.w	sp!, {r3, lr}
  HAL_SYSTICK_IRQHandler();
 80036e6:	f7fc be05 	b.w	80002f4 <HAL_SYSTICK_IRQHandler>
	...

080036ec <DMA1_Channel3_IRQHandler>:
void DMA1_Channel3_IRQHandler(void)
{
  /* USER CODE BEGIN DMA1_Channel3_IRQn 0 */

  /* USER CODE END DMA1_Channel3_IRQn 0 */
  HAL_DMA_IRQHandler(&hdma_usart3_rx);
 80036ec:	4801      	ldr	r0, [pc, #4]	; (80036f4 <DMA1_Channel3_IRQHandler+0x8>)
 80036ee:	f7fc bebf 	b.w	8000470 <HAL_DMA_IRQHandler>
 80036f2:	bf00      	nop
 80036f4:	20000894 	.word	0x20000894

080036f8 <DMA1_Channel6_IRQHandler>:
void DMA1_Channel6_IRQHandler(void)
{
  /* USER CODE BEGIN DMA1_Channel6_IRQn 0 */

  /* USER CODE END DMA1_Channel6_IRQn 0 */
  HAL_DMA_IRQHandler(&hdma_usart2_rx);
 80036f8:	4801      	ldr	r0, [pc, #4]	; (8003700 <DMA1_Channel6_IRQHandler+0x8>)
 80036fa:	f7fc beb9 	b.w	8000470 <HAL_DMA_IRQHandler>
 80036fe:	bf00      	nop
 8003700:	20000850 	.word	0x20000850

08003704 <USART2_IRQHandler>:
void USART2_IRQHandler(void)
{
  /* USER CODE BEGIN USART2_IRQn 0 */

  /* USER CODE END USART2_IRQn 0 */
  HAL_UART_IRQHandler(&huart2);
 8003704:	4801      	ldr	r0, [pc, #4]	; (800370c <USART2_IRQHandler+0x8>)
 8003706:	f7fe baa9 	b.w	8001c5c <HAL_UART_IRQHandler>
 800370a:	bf00      	nop
 800370c:	20000918 	.word	0x20000918

08003710 <USART3_IRQHandler>:
void USART3_IRQHandler(void)
{
  /* USER CODE BEGIN USART3_IRQn 0 */

  /* USER CODE END USART3_IRQn 0 */
  HAL_UART_IRQHandler(&huart3);
 8003710:	4801      	ldr	r0, [pc, #4]	; (8003718 <USART3_IRQHandler+0x8>)
 8003712:	f7fe baa3 	b.w	8001c5c <HAL_UART_IRQHandler>
 8003716:	bf00      	nop
 8003718:	200008d8 	.word	0x200008d8

0800371c <RTC_Alarm_IRQHandler>:
void RTC_Alarm_IRQHandler(void)
{
  /* USER CODE BEGIN RTC_Alarm_IRQn 0 */

  /* USER CODE END RTC_Alarm_IRQn 0 */
  HAL_RTC_AlarmIRQHandler(&hrtc);
 800371c:	4801      	ldr	r0, [pc, #4]	; (8003724 <RTC_Alarm_IRQHandler+0x8>)
 800371e:	f7fd be5d 	b.w	80013dc <HAL_RTC_AlarmIRQHandler>
 8003722:	bf00      	nop
 8003724:	200007e4 	.word	0x200007e4

08003728 <SystemInit>:
  */
void SystemInit (void)
{
  /* Reset the RCC clock configuration to the default reset state(for debug purpose) */
  /* Set HSION bit */
  RCC->CR |= 0x00000001U;
 8003728:	4b0f      	ldr	r3, [pc, #60]	; (8003768 <SystemInit+0x40>)
 800372a:	681a      	ldr	r2, [r3, #0]
 800372c:	f042 0201 	orr.w	r2, r2, #1
 8003730:	601a      	str	r2, [r3, #0]

  /* Reset SW, HPRE, PPRE1, PPRE2, ADCPRE and MCO bits */
#if !defined(STM32F105xC) && !defined(STM32F107xC)
  RCC->CFGR &= 0xF8FF0000U;
 8003732:	6859      	ldr	r1, [r3, #4]
 8003734:	4a0d      	ldr	r2, [pc, #52]	; (800376c <SystemInit+0x44>)
 8003736:	400a      	ands	r2, r1
 8003738:	605a      	str	r2, [r3, #4]
#else
  RCC->CFGR &= 0xF0FF0000U;
#endif /* STM32F105xC */   
  
  /* Reset HSEON, CSSON and PLLON bits */
  RCC->CR &= 0xFEF6FFFFU;
 800373a:	681a      	ldr	r2, [r3, #0]
 800373c:	f022 7284 	bic.w	r2, r2, #17301504	; 0x1080000
 8003740:	f422 3280 	bic.w	r2, r2, #65536	; 0x10000
 8003744:	601a      	str	r2, [r3, #0]

  /* Reset HSEBYP bit */
  RCC->CR &= 0xFFFBFFFFU;
 8003746:	681a      	ldr	r2, [r3, #0]
 8003748:	f422 2280 	bic.w	r2, r2, #262144	; 0x40000
 800374c:	601a      	str	r2, [r3, #0]

  /* Reset PLLSRC, PLLXTPRE, PLLMUL and USBPRE/OTGFSPRE bits */
  RCC->CFGR &= 0xFF80FFFFU;
 800374e:	685a      	ldr	r2, [r3, #4]
 8003750:	f422 02fe 	bic.w	r2, r2, #8323072	; 0x7f0000
 8003754:	605a      	str	r2, [r3, #4]

  /* Reset CFGR2 register */
  RCC->CFGR2 = 0x00000000U;      
#else
  /* Disable all interrupts and clear pending bits  */
  RCC->CIR = 0x009F0000U;
 8003756:	f44f 021f 	mov.w	r2, #10420224	; 0x9f0000
 800375a:	609a      	str	r2, [r3, #8]
#endif 

#ifdef VECT_TAB_SRAM
  SCB->VTOR = SRAM_BASE | VECT_TAB_OFFSET; /* Vector Table Relocation in Internal SRAM. */
#else
  SCB->VTOR = FLASH_BASE | VECT_TAB_OFFSET; /* Vector Table Relocation in Internal FLASH. */
 800375c:	f04f 6200 	mov.w	r2, #134217728	; 0x8000000
 8003760:	4b03      	ldr	r3, [pc, #12]	; (8003770 <SystemInit+0x48>)
 8003762:	609a      	str	r2, [r3, #8]
 8003764:	4770      	bx	lr
 8003766:	bf00      	nop
 8003768:	40021000 	.word	0x40021000
 800376c:	f8ff0000 	.word	0xf8ff0000
 8003770:	e000ed00 	.word	0xe000ed00

08003774 <MX_USART2_UART_Init>:
DMA_HandleTypeDef hdma_usart3_rx;

/* USART2 init function */

void MX_USART2_UART_Init(void)
{
 8003774:	b508      	push	{r3, lr}

  huart2.Instance = USART2;
  huart2.Init.BaudRate = 9600;
 8003776:	f44f 5e16 	mov.w	lr, #9600	; 0x2580
  huart2.Instance = USART2;
 800377a:	480b      	ldr	r0, [pc, #44]	; (80037a8 <MX_USART2_UART_Init+0x34>)
  huart2.Init.BaudRate = 9600;
 800377c:	4b0b      	ldr	r3, [pc, #44]	; (80037ac <MX_USART2_UART_Init+0x38>)
  huart2.Init.WordLength = UART_WORDLENGTH_8B;
  huart2.Init.StopBits = UART_STOPBITS_1;
  huart2.Init.Parity = UART_PARITY_NONE;
  huart2.Init.Mode = UART_MODE_TX_RX;
 800377e:	220c      	movs	r2, #12
  huart2.Init.BaudRate = 9600;
 8003780:	e880 4008 	stmia.w	r0, {r3, lr}
  huart2.Init.WordLength = UART_WORDLENGTH_8B;
 8003784:	2300      	movs	r3, #0
  huart2.Init.Mode = UART_MODE_TX_RX;
 8003786:	6142      	str	r2, [r0, #20]
  huart2.Init.WordLength = UART_WORDLENGTH_8B;
 8003788:	6083      	str	r3, [r0, #8]
  huart2.Init.StopBits = UART_STOPBITS_1;
 800378a:	60c3      	str	r3, [r0, #12]
  huart2.Init.Parity = UART_PARITY_NONE;
 800378c:	6103      	str	r3, [r0, #16]
  huart2.Init.HwFlowCtl = UART_HWCONTROL_NONE;
 800378e:	6183      	str	r3, [r0, #24]
  huart2.Init.OverSampling = UART_OVERSAMPLING_16;
 8003790:	61c3      	str	r3, [r0, #28]
  if (HAL_UART_Init(&huart2) != HAL_OK)
 8003792:	f7fe f909 	bl	80019a8 <HAL_UART_Init>
 8003796:	b128      	cbz	r0, 80037a4 <MX_USART2_UART_Init+0x30>
  {
    _Error_Handler(__FILE__, __LINE__);
  }

}
 8003798:	e8bd 4008 	ldmia.w	sp!, {r3, lr}
    _Error_Handler(__FILE__, __LINE__);
 800379c:	2146      	movs	r1, #70	; 0x46
 800379e:	4804      	ldr	r0, [pc, #16]	; (80037b0 <MX_USART2_UART_Init+0x3c>)
 80037a0:	f7ff be7d 	b.w	800349e <_Error_Handler>
 80037a4:	bd08      	pop	{r3, pc}
 80037a6:	bf00      	nop
 80037a8:	20000918 	.word	0x20000918
 80037ac:	40004400 	.word	0x40004400
 80037b0:	08003dda 	.word	0x08003dda

080037b4 <MX_USART3_UART_Init>:
/* USART3 init function */

void MX_USART3_UART_Init(void)
{
 80037b4:	b508      	push	{r3, lr}

  huart3.Instance = USART3;
  huart3.Init.BaudRate = 9600;
 80037b6:	f44f 5e16 	mov.w	lr, #9600	; 0x2580
  huart3.Instance = USART3;
 80037ba:	480b      	ldr	r0, [pc, #44]	; (80037e8 <MX_USART3_UART_Init+0x34>)
  huart3.Init.BaudRate = 9600;
 80037bc:	4b0b      	ldr	r3, [pc, #44]	; (80037ec <MX_USART3_UART_Init+0x38>)
  huart3.Init.WordLength = UART_WORDLENGTH_8B;
  huart3.Init.StopBits = UART_STOPBITS_1;
  huart3.Init.Parity = UART_PARITY_NONE;
  huart3.Init.Mode = UART_MODE_TX_RX;
 80037be:	220c      	movs	r2, #12
  huart3.Init.BaudRate = 9600;
 80037c0:	e880 4008 	stmia.w	r0, {r3, lr}
  huart3.Init.WordLength = UART_WORDLENGTH_8B;
 80037c4:	2300      	movs	r3, #0
  huart3.Init.Mode = UART_MODE_TX_RX;
 80037c6:	6142      	str	r2, [r0, #20]
  huart3.Init.WordLength = UART_WORDLENGTH_8B;
 80037c8:	6083      	str	r3, [r0, #8]
  huart3.Init.StopBits = UART_STOPBITS_1;
 80037ca:	60c3      	str	r3, [r0, #12]
  huart3.Init.Parity = UART_PARITY_NONE;
 80037cc:	6103      	str	r3, [r0, #16]
  huart3.Init.HwFlowCtl = UART_HWCONTROL_NONE;
 80037ce:	6183      	str	r3, [r0, #24]
  huart3.Init.OverSampling = UART_OVERSAMPLING_16;
 80037d0:	61c3      	str	r3, [r0, #28]
  if (HAL_UART_Init(&huart3) != HAL_OK)
 80037d2:	f7fe f8e9 	bl	80019a8 <HAL_UART_Init>
 80037d6:	b128      	cbz	r0, 80037e4 <MX_USART3_UART_Init+0x30>
  {
    _Error_Handler(__FILE__, __LINE__);
  }

}
 80037d8:	e8bd 4008 	ldmia.w	sp!, {r3, lr}
    _Error_Handler(__FILE__, __LINE__);
 80037dc:	2159      	movs	r1, #89	; 0x59
 80037de:	4804      	ldr	r0, [pc, #16]	; (80037f0 <MX_USART3_UART_Init+0x3c>)
 80037e0:	f7ff be5d 	b.w	800349e <_Error_Handler>
 80037e4:	bd08      	pop	{r3, pc}
 80037e6:	bf00      	nop
 80037e8:	200008d8 	.word	0x200008d8
 80037ec:	40004800 	.word	0x40004800
 80037f0:	08003dda 	.word	0x08003dda

080037f4 <HAL_UART_MspInit>:

void HAL_UART_MspInit(UART_HandleTypeDef* uartHandle)
{
 80037f4:	b570      	push	{r4, r5, r6, lr}

  GPIO_InitTypeDef GPIO_InitStruct;
  if(uartHandle->Instance==USART2)
 80037f6:	6803      	ldr	r3, [r0, #0]
 80037f8:	4a40      	ldr	r2, [pc, #256]	; (80038fc <HAL_UART_MspInit+0x108>)
{
 80037fa:	b086      	sub	sp, #24
  if(uartHandle->Instance==USART2)
 80037fc:	4293      	cmp	r3, r2
{
 80037fe:	4606      	mov	r6, r0
  if(uartHandle->Instance==USART2)
 8003800:	d13d      	bne.n	800387e <HAL_UART_MspInit+0x8a>
  {
  /* USER CODE BEGIN USART2_MspInit 0 */

  /* USER CODE END USART2_MspInit 0 */
    /* USART2 clock enable */
    __HAL_RCC_USART2_CLK_ENABLE();
 8003802:	4b3f      	ldr	r3, [pc, #252]	; (8003900 <HAL_UART_MspInit+0x10c>)
    PA3     ------> USART2_RX 
    */
    GPIO_InitStruct.Pin = USART2_TX_GPS_Pin;
    GPIO_InitStruct.Mode = GPIO_MODE_AF_PP;
    GPIO_InitStruct.Speed = GPIO_SPEED_FREQ_HIGH;
    HAL_GPIO_Init(USART2_TX_GPS_GPIO_Port, &GPIO_InitStruct);
 8003804:	a902      	add	r1, sp, #8
    __HAL_RCC_USART2_CLK_ENABLE();
 8003806:	69da      	ldr	r2, [r3, #28]
    HAL_GPIO_Init(USART2_TX_GPS_GPIO_Port, &GPIO_InitStruct);
 8003808:	483e      	ldr	r0, [pc, #248]	; (8003904 <HAL_UART_MspInit+0x110>)
    __HAL_RCC_USART2_CLK_ENABLE();
 800380a:	f442 3200 	orr.w	r2, r2, #131072	; 0x20000
 800380e:	61da      	str	r2, [r3, #28]
 8003810:	69db      	ldr	r3, [r3, #28]

    GPIO_InitStruct.Pin = USART2_RX_GPS_Pin;
    GPIO_InitStruct.Mode = GPIO_MODE_INPUT;
 8003812:	2500      	movs	r5, #0
    __HAL_RCC_USART2_CLK_ENABLE();
 8003814:	f403 3300 	and.w	r3, r3, #131072	; 0x20000
 8003818:	9300      	str	r3, [sp, #0]
 800381a:	9b00      	ldr	r3, [sp, #0]
    GPIO_InitStruct.Pin = USART2_TX_GPS_Pin;
 800381c:	2304      	movs	r3, #4
 800381e:	9302      	str	r3, [sp, #8]
    GPIO_InitStruct.Mode = GPIO_MODE_AF_PP;
 8003820:	2302      	movs	r3, #2
 8003822:	9303      	str	r3, [sp, #12]
    GPIO_InitStruct.Speed = GPIO_SPEED_FREQ_HIGH;
 8003824:	2303      	movs	r3, #3
 8003826:	9305      	str	r3, [sp, #20]
    HAL_GPIO_Init(USART2_TX_GPS_GPIO_Port, &GPIO_InitStruct);
 8003828:	f7fc feb6 	bl	8000598 <HAL_GPIO_Init>
    GPIO_InitStruct.Pin = USART2_RX_GPS_Pin;
 800382c:	2308      	movs	r3, #8
    GPIO_InitStruct.Pull = GPIO_NOPULL;
    HAL_GPIO_Init(USART2_RX_GPS_GPIO_Port, &GPIO_InitStruct);
 800382e:	4835      	ldr	r0, [pc, #212]	; (8003904 <HAL_UART_MspInit+0x110>)
 8003830:	eb0d 0103 	add.w	r1, sp, r3

    /* USART2 DMA Init */
    /* USART2_RX Init */
    hdma_usart2_rx.Instance = DMA1_Channel6;
 8003834:	4c34      	ldr	r4, [pc, #208]	; (8003908 <HAL_UART_MspInit+0x114>)
    GPIO_InitStruct.Pin = USART2_RX_GPS_Pin;
 8003836:	9302      	str	r3, [sp, #8]
    GPIO_InitStruct.Mode = GPIO_MODE_INPUT;
 8003838:	9503      	str	r5, [sp, #12]
    GPIO_InitStruct.Pull = GPIO_NOPULL;
 800383a:	9504      	str	r5, [sp, #16]
    HAL_GPIO_Init(USART2_RX_GPS_GPIO_Port, &GPIO_InitStruct);
 800383c:	f7fc feac 	bl	8000598 <HAL_GPIO_Init>
    hdma_usart2_rx.Instance = DMA1_Channel6;
 8003840:	4b32      	ldr	r3, [pc, #200]	; (800390c <HAL_UART_MspInit+0x118>)
    hdma_usart2_rx.Init.MemInc = DMA_MINC_ENABLE;
    hdma_usart2_rx.Init.PeriphDataAlignment = DMA_PDATAALIGN_BYTE;
    hdma_usart2_rx.Init.MemDataAlignment = DMA_MDATAALIGN_BYTE;
    hdma_usart2_rx.Init.Mode = DMA_CIRCULAR;
    hdma_usart2_rx.Init.Priority = DMA_PRIORITY_LOW;
    if (HAL_DMA_Init(&hdma_usart2_rx) != HAL_OK)
 8003842:	4620      	mov	r0, r4
    hdma_usart2_rx.Init.Direction = DMA_PERIPH_TO_MEMORY;
 8003844:	e884 0028 	stmia.w	r4, {r3, r5}
    hdma_usart2_rx.Init.MemInc = DMA_MINC_ENABLE;
 8003848:	2380      	movs	r3, #128	; 0x80
 800384a:	60e3      	str	r3, [r4, #12]
    hdma_usart2_rx.Init.Mode = DMA_CIRCULAR;
 800384c:	2320      	movs	r3, #32
    hdma_usart2_rx.Init.PeriphInc = DMA_PINC_DISABLE;
 800384e:	60a5      	str	r5, [r4, #8]
    hdma_usart2_rx.Init.PeriphDataAlignment = DMA_PDATAALIGN_BYTE;
 8003850:	6125      	str	r5, [r4, #16]
    hdma_usart2_rx.Init.MemDataAlignment = DMA_MDATAALIGN_BYTE;
 8003852:	6165      	str	r5, [r4, #20]
    hdma_usart2_rx.Init.Mode = DMA_CIRCULAR;
 8003854:	61a3      	str	r3, [r4, #24]
    hdma_usart2_rx.Init.Priority = DMA_PRIORITY_LOW;
 8003856:	61e5      	str	r5, [r4, #28]
    if (HAL_DMA_Init(&hdma_usart2_rx) != HAL_OK)
 8003858:	f7fc fd50 	bl	80002fc <HAL_DMA_Init>
 800385c:	b118      	cbz	r0, 8003866 <HAL_UART_MspInit+0x72>
    {
      _Error_Handler(__FILE__, __LINE__);
 800385e:	2184      	movs	r1, #132	; 0x84
 8003860:	482b      	ldr	r0, [pc, #172]	; (8003910 <HAL_UART_MspInit+0x11c>)
 8003862:	f7ff fe1c 	bl	800349e <_Error_Handler>
    }

    __HAL_LINKDMA(uartHandle,hdmarx,hdma_usart2_rx);

    /* USART2 interrupt Init */
    HAL_NVIC_SetPriority(USART2_IRQn, 0, 0);
 8003866:	2200      	movs	r2, #0
 8003868:	2026      	movs	r0, #38	; 0x26
    __HAL_LINKDMA(uartHandle,hdmarx,hdma_usart2_rx);
 800386a:	6374      	str	r4, [r6, #52]	; 0x34
    HAL_NVIC_SetPriority(USART2_IRQn, 0, 0);
 800386c:	4611      	mov	r1, r2
    __HAL_LINKDMA(uartHandle,hdmarx,hdma_usart2_rx);
 800386e:	6266      	str	r6, [r4, #36]	; 0x24
    HAL_NVIC_SetPriority(USART2_IRQn, 0, 0);
 8003870:	f7fc fcde 	bl	8000230 <HAL_NVIC_SetPriority>
    HAL_NVIC_EnableIRQ(USART2_IRQn);
 8003874:	2026      	movs	r0, #38	; 0x26

    __HAL_LINKDMA(uartHandle,hdmarx,hdma_usart3_rx);

    /* USART3 interrupt Init */
    HAL_NVIC_SetPriority(USART3_IRQn, 0, 0);
    HAL_NVIC_EnableIRQ(USART3_IRQn);
 8003876:	f7fc fd0f 	bl	8000298 <HAL_NVIC_EnableIRQ>
  /* USER CODE BEGIN USART3_MspInit 1 */

  /* USER CODE END USART3_MspInit 1 */
  }
}
 800387a:	b006      	add	sp, #24
 800387c:	bd70      	pop	{r4, r5, r6, pc}
  else if(uartHandle->Instance==USART3)
 800387e:	4a25      	ldr	r2, [pc, #148]	; (8003914 <HAL_UART_MspInit+0x120>)
 8003880:	4293      	cmp	r3, r2
 8003882:	d1fa      	bne.n	800387a <HAL_UART_MspInit+0x86>
    __HAL_RCC_USART3_CLK_ENABLE();
 8003884:	4b1e      	ldr	r3, [pc, #120]	; (8003900 <HAL_UART_MspInit+0x10c>)
    HAL_GPIO_Init(USART3_TX_GSM_GPIO_Port, &GPIO_InitStruct);
 8003886:	a902      	add	r1, sp, #8
    __HAL_RCC_USART3_CLK_ENABLE();
 8003888:	69da      	ldr	r2, [r3, #28]
    HAL_GPIO_Init(USART3_TX_GSM_GPIO_Port, &GPIO_InitStruct);
 800388a:	4823      	ldr	r0, [pc, #140]	; (8003918 <HAL_UART_MspInit+0x124>)
    __HAL_RCC_USART3_CLK_ENABLE();
 800388c:	f442 2280 	orr.w	r2, r2, #262144	; 0x40000
 8003890:	61da      	str	r2, [r3, #28]
 8003892:	69db      	ldr	r3, [r3, #28]
    GPIO_InitStruct.Mode = GPIO_MODE_INPUT;
 8003894:	2500      	movs	r5, #0
    __HAL_RCC_USART3_CLK_ENABLE();
 8003896:	f403 2380 	and.w	r3, r3, #262144	; 0x40000
 800389a:	9301      	str	r3, [sp, #4]
 800389c:	9b01      	ldr	r3, [sp, #4]
    GPIO_InitStruct.Pin = USART3_TX_GSM_Pin;
 800389e:	f44f 6380 	mov.w	r3, #1024	; 0x400
 80038a2:	9302      	str	r3, [sp, #8]
    GPIO_InitStruct.Mode = GPIO_MODE_AF_PP;
 80038a4:	2302      	movs	r3, #2
 80038a6:	9303      	str	r3, [sp, #12]
    GPIO_InitStruct.Speed = GPIO_SPEED_FREQ_HIGH;
 80038a8:	2303      	movs	r3, #3
 80038aa:	9305      	str	r3, [sp, #20]
    HAL_GPIO_Init(USART3_TX_GSM_GPIO_Port, &GPIO_InitStruct);
 80038ac:	f7fc fe74 	bl	8000598 <HAL_GPIO_Init>
    GPIO_InitStruct.Pin = USART3_RX_GSM_Pin;
 80038b0:	f44f 6300 	mov.w	r3, #2048	; 0x800
    HAL_GPIO_Init(USART3_RX_GSM_GPIO_Port, &GPIO_InitStruct);
 80038b4:	4818      	ldr	r0, [pc, #96]	; (8003918 <HAL_UART_MspInit+0x124>)
 80038b6:	a902      	add	r1, sp, #8
    hdma_usart3_rx.Instance = DMA1_Channel3;
 80038b8:	4c18      	ldr	r4, [pc, #96]	; (800391c <HAL_UART_MspInit+0x128>)
    GPIO_InitStruct.Pin = USART3_RX_GSM_Pin;
 80038ba:	9302      	str	r3, [sp, #8]
    GPIO_InitStruct.Mode = GPIO_MODE_INPUT;
 80038bc:	9503      	str	r5, [sp, #12]
    GPIO_InitStruct.Pull = GPIO_NOPULL;
 80038be:	9504      	str	r5, [sp, #16]
    HAL_GPIO_Init(USART3_RX_GSM_GPIO_Port, &GPIO_InitStruct);
 80038c0:	f7fc fe6a 	bl	8000598 <HAL_GPIO_Init>
    hdma_usart3_rx.Instance = DMA1_Channel3;
 80038c4:	4b16      	ldr	r3, [pc, #88]	; (8003920 <HAL_UART_MspInit+0x12c>)
    if (HAL_DMA_Init(&hdma_usart3_rx) != HAL_OK)
 80038c6:	4620      	mov	r0, r4
    hdma_usart3_rx.Init.Direction = DMA_PERIPH_TO_MEMORY;
 80038c8:	e884 0028 	stmia.w	r4, {r3, r5}
    hdma_usart3_rx.Init.MemInc = DMA_MINC_ENABLE;
 80038cc:	2380      	movs	r3, #128	; 0x80
 80038ce:	60e3      	str	r3, [r4, #12]
    hdma_usart3_rx.Init.Mode = DMA_CIRCULAR;
 80038d0:	2320      	movs	r3, #32
    hdma_usart3_rx.Init.PeriphInc = DMA_PINC_DISABLE;
 80038d2:	60a5      	str	r5, [r4, #8]
    hdma_usart3_rx.Init.PeriphDataAlignment = DMA_PDATAALIGN_BYTE;
 80038d4:	6125      	str	r5, [r4, #16]
    hdma_usart3_rx.Init.MemDataAlignment = DMA_MDATAALIGN_BYTE;
 80038d6:	6165      	str	r5, [r4, #20]
    hdma_usart3_rx.Init.Mode = DMA_CIRCULAR;
 80038d8:	61a3      	str	r3, [r4, #24]
    hdma_usart3_rx.Init.Priority = DMA_PRIORITY_LOW;
 80038da:	61e5      	str	r5, [r4, #28]
    if (HAL_DMA_Init(&hdma_usart3_rx) != HAL_OK)
 80038dc:	f7fc fd0e 	bl	80002fc <HAL_DMA_Init>
 80038e0:	b118      	cbz	r0, 80038ea <HAL_UART_MspInit+0xf6>
      _Error_Handler(__FILE__, __LINE__);
 80038e2:	21b2      	movs	r1, #178	; 0xb2
 80038e4:	480a      	ldr	r0, [pc, #40]	; (8003910 <HAL_UART_MspInit+0x11c>)
 80038e6:	f7ff fdda 	bl	800349e <_Error_Handler>
    HAL_NVIC_SetPriority(USART3_IRQn, 0, 0);
 80038ea:	2200      	movs	r2, #0
 80038ec:	2027      	movs	r0, #39	; 0x27
    __HAL_LINKDMA(uartHandle,hdmarx,hdma_usart3_rx);
 80038ee:	6374      	str	r4, [r6, #52]	; 0x34
    HAL_NVIC_SetPriority(USART3_IRQn, 0, 0);
 80038f0:	4611      	mov	r1, r2
    __HAL_LINKDMA(uartHandle,hdmarx,hdma_usart3_rx);
 80038f2:	6266      	str	r6, [r4, #36]	; 0x24
    HAL_NVIC_SetPriority(USART3_IRQn, 0, 0);
 80038f4:	f7fc fc9c 	bl	8000230 <HAL_NVIC_SetPriority>
    HAL_NVIC_EnableIRQ(USART3_IRQn);
 80038f8:	2027      	movs	r0, #39	; 0x27
 80038fa:	e7bc      	b.n	8003876 <HAL_UART_MspInit+0x82>
 80038fc:	40004400 	.word	0x40004400
 8003900:	40021000 	.word	0x40021000
 8003904:	40010800 	.word	0x40010800
 8003908:	20000850 	.word	0x20000850
 800390c:	4002006c 	.word	0x4002006c
 8003910:	08003dda 	.word	0x08003dda
 8003914:	40004800 	.word	0x40004800
 8003918:	40010c00 	.word	0x40010c00
 800391c:	20000894 	.word	0x20000894
 8003920:	40020030 	.word	0x40020030

08003924 <Reset_Handler>:
  .weak Reset_Handler
  .type Reset_Handler, %function
Reset_Handler:

/* Copy the data segment initializers from flash to SRAM */
  movs r1, #0
 8003924:	2100      	movs	r1, #0
  b LoopCopyDataInit
 8003926:	e003      	b.n	8003930 <LoopCopyDataInit>

08003928 <CopyDataInit>:

CopyDataInit:
  ldr r3, =_sidata
 8003928:	4b0b      	ldr	r3, [pc, #44]	; (8003958 <LoopFillZerobss+0x14>)
  ldr r3, [r3, r1]
 800392a:	585b      	ldr	r3, [r3, r1]
  str r3, [r0, r1]
 800392c:	5043      	str	r3, [r0, r1]
  adds r1, r1, #4
 800392e:	3104      	adds	r1, #4

08003930 <LoopCopyDataInit>:

LoopCopyDataInit:
  ldr r0, =_sdata
 8003930:	480a      	ldr	r0, [pc, #40]	; (800395c <LoopFillZerobss+0x18>)
  ldr r3, =_edata
 8003932:	4b0b      	ldr	r3, [pc, #44]	; (8003960 <LoopFillZerobss+0x1c>)
  adds r2, r0, r1
 8003934:	1842      	adds	r2, r0, r1
  cmp r2, r3
 8003936:	429a      	cmp	r2, r3
  bcc CopyDataInit
 8003938:	d3f6      	bcc.n	8003928 <CopyDataInit>
  ldr r2, =_sbss
 800393a:	4a0a      	ldr	r2, [pc, #40]	; (8003964 <LoopFillZerobss+0x20>)
  b LoopFillZerobss
 800393c:	e002      	b.n	8003944 <LoopFillZerobss>

0800393e <FillZerobss>:
/* Zero fill the bss segment. */
FillZerobss:
  movs r3, #0
 800393e:	2300      	movs	r3, #0
  str r3, [r2], #4
 8003940:	f842 3b04 	str.w	r3, [r2], #4

08003944 <LoopFillZerobss>:

LoopFillZerobss:
  ldr r3, = _ebss
 8003944:	4b08      	ldr	r3, [pc, #32]	; (8003968 <LoopFillZerobss+0x24>)
  cmp r2, r3
 8003946:	429a      	cmp	r2, r3
  bcc FillZerobss
 8003948:	d3f9      	bcc.n	800393e <FillZerobss>

/* Call the clock system intitialization function.*/
    bl  SystemInit
 800394a:	f7ff feed 	bl	8003728 <SystemInit>
/* Call static constructors */
    bl __libc_init_array
 800394e:	f000 f80f 	bl	8003970 <__libc_init_array>
/* Call the application's entry point.*/
  bl main
 8003952:	f7ff fd88 	bl	8003466 <main>
  bx lr
 8003956:	4770      	bx	lr
  ldr r3, =_sidata
 8003958:	08003df4 	.word	0x08003df4
  ldr r0, =_sdata
 800395c:	20000000 	.word	0x20000000
  ldr r3, =_edata
 8003960:	2000000c 	.word	0x2000000c
  ldr r2, =_sbss
 8003964:	2000000c 	.word	0x2000000c
  ldr r3, = _ebss
 8003968:	20000958 	.word	0x20000958

0800396c <ADC1_2_IRQHandler>:
 * @retval : None
*/
    .section .text.Default_Handler,"ax",%progbits
Default_Handler:
Infinite_Loop:
  b Infinite_Loop
 800396c:	e7fe      	b.n	800396c <ADC1_2_IRQHandler>
	...

08003970 <__libc_init_array>:
 8003970:	b570      	push	{r4, r5, r6, lr}
 8003972:	2500      	movs	r5, #0
 8003974:	4e0c      	ldr	r6, [pc, #48]	; (80039a8 <__libc_init_array+0x38>)
 8003976:	4c0d      	ldr	r4, [pc, #52]	; (80039ac <__libc_init_array+0x3c>)
 8003978:	1ba4      	subs	r4, r4, r6
 800397a:	10a4      	asrs	r4, r4, #2
 800397c:	42a5      	cmp	r5, r4
 800397e:	d109      	bne.n	8003994 <__libc_init_array+0x24>
 8003980:	f000 f898 	bl	8003ab4 <_init>
 8003984:	2500      	movs	r5, #0
 8003986:	4e0a      	ldr	r6, [pc, #40]	; (80039b0 <__libc_init_array+0x40>)
 8003988:	4c0a      	ldr	r4, [pc, #40]	; (80039b4 <__libc_init_array+0x44>)
 800398a:	1ba4      	subs	r4, r4, r6
 800398c:	10a4      	asrs	r4, r4, #2
 800398e:	42a5      	cmp	r5, r4
 8003990:	d105      	bne.n	800399e <__libc_init_array+0x2e>
 8003992:	bd70      	pop	{r4, r5, r6, pc}
 8003994:	f856 3025 	ldr.w	r3, [r6, r5, lsl #2]
 8003998:	4798      	blx	r3
 800399a:	3501      	adds	r5, #1
 800399c:	e7ee      	b.n	800397c <__libc_init_array+0xc>
 800399e:	f856 3025 	ldr.w	r3, [r6, r5, lsl #2]
 80039a2:	4798      	blx	r3
 80039a4:	3501      	adds	r5, #1
 80039a6:	e7f2      	b.n	800398e <__libc_init_array+0x1e>
 80039a8:	08003dec 	.word	0x08003dec
 80039ac:	08003dec 	.word	0x08003dec
 80039b0:	08003dec 	.word	0x08003dec
 80039b4:	08003df0 	.word	0x08003df0

080039b8 <memcmp>:
 80039b8:	b510      	push	{r4, lr}
 80039ba:	3901      	subs	r1, #1
 80039bc:	4402      	add	r2, r0
 80039be:	4290      	cmp	r0, r2
 80039c0:	d101      	bne.n	80039c6 <memcmp+0xe>
 80039c2:	2000      	movs	r0, #0
 80039c4:	bd10      	pop	{r4, pc}
 80039c6:	f810 3b01 	ldrb.w	r3, [r0], #1
 80039ca:	f811 4f01 	ldrb.w	r4, [r1, #1]!
 80039ce:	42a3      	cmp	r3, r4
 80039d0:	d0f5      	beq.n	80039be <memcmp+0x6>
 80039d2:	1b18      	subs	r0, r3, r4
 80039d4:	bd10      	pop	{r4, pc}

080039d6 <memset>:
 80039d6:	4603      	mov	r3, r0
 80039d8:	4402      	add	r2, r0
 80039da:	4293      	cmp	r3, r2
 80039dc:	d100      	bne.n	80039e0 <memset+0xa>
 80039de:	4770      	bx	lr
 80039e0:	f803 1b01 	strb.w	r1, [r3], #1
 80039e4:	e7f9      	b.n	80039da <memset+0x4>

080039e6 <strcat>:
 80039e6:	4602      	mov	r2, r0
 80039e8:	b510      	push	{r4, lr}
 80039ea:	4613      	mov	r3, r2
 80039ec:	781c      	ldrb	r4, [r3, #0]
 80039ee:	3201      	adds	r2, #1
 80039f0:	2c00      	cmp	r4, #0
 80039f2:	d1fa      	bne.n	80039ea <strcat+0x4>
 80039f4:	3b01      	subs	r3, #1
 80039f6:	f811 2b01 	ldrb.w	r2, [r1], #1
 80039fa:	f803 2f01 	strb.w	r2, [r3, #1]!
 80039fe:	2a00      	cmp	r2, #0
 8003a00:	d1f9      	bne.n	80039f6 <strcat+0x10>
 8003a02:	bd10      	pop	{r4, pc}

08003a04 <strchr>:
 8003a04:	b2c9      	uxtb	r1, r1
 8003a06:	4603      	mov	r3, r0
 8003a08:	f810 2b01 	ldrb.w	r2, [r0], #1
 8003a0c:	b11a      	cbz	r2, 8003a16 <strchr+0x12>
 8003a0e:	4291      	cmp	r1, r2
 8003a10:	d1f9      	bne.n	8003a06 <strchr+0x2>
 8003a12:	4618      	mov	r0, r3
 8003a14:	4770      	bx	lr
 8003a16:	2900      	cmp	r1, #0
 8003a18:	bf0c      	ite	eq
 8003a1a:	4618      	moveq	r0, r3
 8003a1c:	2000      	movne	r0, #0
 8003a1e:	4770      	bx	lr

08003a20 <strcpy>:
 8003a20:	4603      	mov	r3, r0
 8003a22:	f811 2b01 	ldrb.w	r2, [r1], #1
 8003a26:	f803 2b01 	strb.w	r2, [r3], #1
 8003a2a:	2a00      	cmp	r2, #0
 8003a2c:	d1f9      	bne.n	8003a22 <strcpy+0x2>
 8003a2e:	4770      	bx	lr

08003a30 <strncmp>:
 8003a30:	b510      	push	{r4, lr}
 8003a32:	b16a      	cbz	r2, 8003a50 <strncmp+0x20>
 8003a34:	3901      	subs	r1, #1
 8003a36:	1884      	adds	r4, r0, r2
 8003a38:	f810 3b01 	ldrb.w	r3, [r0], #1
 8003a3c:	f811 2f01 	ldrb.w	r2, [r1, #1]!
 8003a40:	4293      	cmp	r3, r2
 8003a42:	d103      	bne.n	8003a4c <strncmp+0x1c>
 8003a44:	42a0      	cmp	r0, r4
 8003a46:	d001      	beq.n	8003a4c <strncmp+0x1c>
 8003a48:	2b00      	cmp	r3, #0
 8003a4a:	d1f5      	bne.n	8003a38 <strncmp+0x8>
 8003a4c:	1a98      	subs	r0, r3, r2
 8003a4e:	bd10      	pop	{r4, pc}
 8003a50:	4610      	mov	r0, r2
 8003a52:	bd10      	pop	{r4, pc}

08003a54 <strncpy>:
 8003a54:	b570      	push	{r4, r5, r6, lr}
 8003a56:	4604      	mov	r4, r0
 8003a58:	b902      	cbnz	r2, 8003a5c <strncpy+0x8>
 8003a5a:	bd70      	pop	{r4, r5, r6, pc}
 8003a5c:	4623      	mov	r3, r4
 8003a5e:	f811 5b01 	ldrb.w	r5, [r1], #1
 8003a62:	1e56      	subs	r6, r2, #1
 8003a64:	f803 5b01 	strb.w	r5, [r3], #1
 8003a68:	b91d      	cbnz	r5, 8003a72 <strncpy+0x1e>
 8003a6a:	4414      	add	r4, r2
 8003a6c:	42a3      	cmp	r3, r4
 8003a6e:	d103      	bne.n	8003a78 <strncpy+0x24>
 8003a70:	bd70      	pop	{r4, r5, r6, pc}
 8003a72:	461c      	mov	r4, r3
 8003a74:	4632      	mov	r2, r6
 8003a76:	e7ef      	b.n	8003a58 <strncpy+0x4>
 8003a78:	f803 5b01 	strb.w	r5, [r3], #1
 8003a7c:	e7f6      	b.n	8003a6c <strncpy+0x18>

08003a7e <strstr>:
 8003a7e:	b5f0      	push	{r4, r5, r6, r7, lr}
 8003a80:	7803      	ldrb	r3, [r0, #0]
 8003a82:	b133      	cbz	r3, 8003a92 <strstr+0x14>
 8003a84:	4603      	mov	r3, r0
 8003a86:	4618      	mov	r0, r3
 8003a88:	1c5e      	adds	r6, r3, #1
 8003a8a:	781b      	ldrb	r3, [r3, #0]
 8003a8c:	b933      	cbnz	r3, 8003a9c <strstr+0x1e>
 8003a8e:	4618      	mov	r0, r3
 8003a90:	bdf0      	pop	{r4, r5, r6, r7, pc}
 8003a92:	780b      	ldrb	r3, [r1, #0]
 8003a94:	2b00      	cmp	r3, #0
 8003a96:	bf18      	it	ne
 8003a98:	2000      	movne	r0, #0
 8003a9a:	bdf0      	pop	{r4, r5, r6, r7, pc}
 8003a9c:	1e4d      	subs	r5, r1, #1
 8003a9e:	1e44      	subs	r4, r0, #1
 8003aa0:	f815 2f01 	ldrb.w	r2, [r5, #1]!
 8003aa4:	2a00      	cmp	r2, #0
 8003aa6:	d0f3      	beq.n	8003a90 <strstr+0x12>
 8003aa8:	f814 7f01 	ldrb.w	r7, [r4, #1]!
 8003aac:	4633      	mov	r3, r6
 8003aae:	4297      	cmp	r7, r2
 8003ab0:	d0f6      	beq.n	8003aa0 <strstr+0x22>
 8003ab2:	e7e8      	b.n	8003a86 <strstr+0x8>

08003ab4 <_init>:
 8003ab4:	b5f8      	push	{r3, r4, r5, r6, r7, lr}
 8003ab6:	bf00      	nop
 8003ab8:	bcf8      	pop	{r3, r4, r5, r6, r7}
 8003aba:	bc08      	pop	{r3}
 8003abc:	469e      	mov	lr, r3
 8003abe:	4770      	bx	lr

08003ac0 <_fini>:
 8003ac0:	b5f8      	push	{r3, r4, r5, r6, r7, lr}
 8003ac2:	bf00      	nop
 8003ac4:	bcf8      	pop	{r3, r4, r5, r6, r7}
 8003ac6:	bc08      	pop	{r3}
 8003ac8:	469e      	mov	lr, r3
 8003aca:	4770      	bx	lr
